
blink.elf:     file format elf32-littlearm


Disassembly of section .text:

00000000 <vector_table>:
       0:	00 10 00 20 a5 00 00 00 39 01 00 00 39 01 00 00     ... ....9...9...
	...
      2c:	39 01 00 00 00 00 00 00 00 00 00 00 39 01 00 00     9...........9...
      3c:	09 0e 00 00 39 01 00 00 39 01 00 00 39 01 00 00     ....9...9...9...
      4c:	39 01 00 00 39 01 00 00 39 01 00 00 39 01 00 00     9...9...9...9...
      5c:	39 01 00 00 39 01 00 00 39 01 00 00 39 01 00 00     9...9...9...9...
      6c:	39 01 00 00 39 01 00 00 39 01 00 00 39 01 00 00     9...9...9...9...
      7c:	39 01 00 00 39 01 00 00 39 01 00 00 39 01 00 00     9...9...9...9...
      8c:	39 01 00 00 39 01 00 00 39 01 00 00 39 01 00 00     9...9...9...9...
      9c:	39 01 00 00 39 01 00 00                             9...9...

000000a4 <Reset_Handler>:
      a4:	b580      	push	{r7, lr}
      a6:	b082      	sub	sp, #8
      a8:	af00      	add	r7, sp, #0
      aa:	4b11      	ldr	r3, [pc, #68]	; (f0 <Reset_Handler+0x4c>)
      ac:	607b      	str	r3, [r7, #4]
      ae:	4b11      	ldr	r3, [pc, #68]	; (f4 <Reset_Handler+0x50>)
      b0:	603b      	str	r3, [r7, #0]
      b2:	e007      	b.n	c4 <Reset_Handler+0x20>
      b4:	687a      	ldr	r2, [r7, #4]
      b6:	1d13      	adds	r3, r2, #4
      b8:	607b      	str	r3, [r7, #4]
      ba:	683b      	ldr	r3, [r7, #0]
      bc:	1d19      	adds	r1, r3, #4
      be:	6039      	str	r1, [r7, #0]
      c0:	6812      	ldr	r2, [r2, #0]
      c2:	601a      	str	r2, [r3, #0]
      c4:	683a      	ldr	r2, [r7, #0]
      c6:	4b0c      	ldr	r3, [pc, #48]	; (f8 <Reset_Handler+0x54>)
      c8:	429a      	cmp	r2, r3
      ca:	d3f3      	bcc.n	b4 <Reset_Handler+0x10>
      cc:	4b0b      	ldr	r3, [pc, #44]	; (fc <Reset_Handler+0x58>)
      ce:	603b      	str	r3, [r7, #0]
      d0:	e004      	b.n	dc <Reset_Handler+0x38>
      d2:	683b      	ldr	r3, [r7, #0]
      d4:	1d1a      	adds	r2, r3, #4
      d6:	603a      	str	r2, [r7, #0]
      d8:	2200      	movs	r2, #0
      da:	601a      	str	r2, [r3, #0]
      dc:	683a      	ldr	r2, [r7, #0]
      de:	4b08      	ldr	r3, [pc, #32]	; (100 <Reset_Handler+0x5c>)
      e0:	429a      	cmp	r2, r3
      e2:	d3f6      	bcc.n	d2 <Reset_Handler+0x2e>
      e4:	f000 f80e 	bl	104 <SystemInit>
      e8:	f000 f82c 	bl	144 <main>
      ec:	bf30      	wfi
      ee:	e7fd      	b.n	ec <Reset_Handler+0x48>
      f0:	00001456 	.word	0x00001456
      f4:	20000000 	.word	0x20000000
      f8:	20000000 	.word	0x20000000
      fc:	20000000 	.word	0x20000000
     100:	20000050 	.word	0x20000050

00000104 <SystemInit>:
     104:	b580      	push	{r7, lr}
     106:	af00      	add	r7, sp, #0
     108:	4b06      	ldr	r3, [pc, #24]	; (124 <SystemInit+0x20>)
     10a:	881b      	ldrh	r3, [r3, #0]
     10c:	b29a      	uxth	r2, r3
     10e:	4b06      	ldr	r3, [pc, #24]	; (128 <SystemInit+0x24>)
     110:	601a      	str	r2, [r3, #0]
     112:	4b06      	ldr	r3, [pc, #24]	; (12c <SystemInit+0x28>)
     114:	2200      	movs	r2, #0
     116:	601a      	str	r2, [r3, #0]
     118:	4b05      	ldr	r3, [pc, #20]	; (130 <SystemInit+0x2c>)
     11a:	4a06      	ldr	r2, [pc, #24]	; (134 <SystemInit+0x30>)
     11c:	601a      	str	r2, [r3, #0]
     11e:	46c0      	nop			; (mov r8, r8)
     120:	46bd      	mov	sp, r7
     122:	bd80      	pop	{r7, pc}
     124:	00100c08 	.word	0x00100c08
     128:	4000200c 	.word	0x4000200c
     12c:	40002000 	.word	0x40002000
     130:	20000000 	.word	0x20000000
     134:	003d0900 	.word	0x003d0900

00000138 <Dummy_Handler>:
     138:	b580      	push	{r7, lr}
     13a:	af00      	add	r7, sp, #0
     13c:	46c0      	nop			; (mov r8, r8)
     13e:	46bd      	mov	sp, r7
     140:	bd80      	pop	{r7, pc}
	...

00000144 <main>:
     144:	b580      	push	{r7, lr}
     146:	b082      	sub	sp, #8
     148:	af00      	add	r7, sp, #0
     14a:	23fa      	movs	r3, #250	; 0xfa
     14c:	009b      	lsls	r3, r3, #2
     14e:	0018      	movs	r0, r3
     150:	f000 fd5e 	bl	c10 <enable_systick>
     154:	f001 f842 	bl	11dc <peripheral_enable_gpio>
     158:	4b16      	ldr	r3, [pc, #88]	; (1b4 <main+0x70>)
     15a:	607b      	str	r3, [r7, #4]
     15c:	4b16      	ldr	r3, [pc, #88]	; (1b8 <main+0x74>)
     15e:	6878      	ldr	r0, [r7, #4]
     160:	781a      	ldrb	r2, [r3, #0]
     162:	785b      	ldrb	r3, [r3, #1]
     164:	021b      	lsls	r3, r3, #8
     166:	431a      	orrs	r2, r3
     168:	2300      	movs	r3, #0
     16a:	0412      	lsls	r2, r2, #16
     16c:	0c12      	lsrs	r2, r2, #16
     16e:	0c1b      	lsrs	r3, r3, #16
     170:	041b      	lsls	r3, r3, #16
     172:	4313      	orrs	r3, r2
     174:	0019      	movs	r1, r3
     176:	f000 fe7b 	bl	e70 <gpio_configure>
     17a:	687b      	ldr	r3, [r7, #4]
     17c:	2101      	movs	r1, #1
     17e:	0018      	movs	r0, r3
     180:	f000 ff3c 	bl	ffc <gpio_digital_write>
     184:	4b0d      	ldr	r3, [pc, #52]	; (1bc <main+0x78>)
     186:	22ff      	movs	r2, #255	; 0xff
     188:	609a      	str	r2, [r3, #8]
     18a:	4b0c      	ldr	r3, [pc, #48]	; (1bc <main+0x78>)
     18c:	2200      	movs	r2, #0
     18e:	601a      	str	r2, [r3, #0]
     190:	20fa      	movs	r0, #250	; 0xfa
     192:	f000 fe07 	bl	da4 <systick_delay>
     196:	687b      	ldr	r3, [r7, #4]
     198:	2101      	movs	r1, #1
     19a:	0018      	movs	r0, r3
     19c:	f000 ff2e 	bl	ffc <gpio_digital_write>
     1a0:	20fa      	movs	r0, #250	; 0xfa
     1a2:	f000 fdff 	bl	da4 <systick_delay>
     1a6:	687b      	ldr	r3, [r7, #4]
     1a8:	2100      	movs	r1, #0
     1aa:	0018      	movs	r0, r3
     1ac:	f000 ff26 	bl	ffc <gpio_digital_write>
     1b0:	e7ee      	b.n	190 <main+0x4c>
     1b2:	46c0      	nop			; (mov r8, r8)
     1b4:	00001350 	.word	0x00001350
     1b8:	00001450 	.word	0x00001450
     1bc:	40020dc0 	.word	0x40020dc0

000001c0 <__NVIC_EnableIRQ>:
     1c0:	b580      	push	{r7, lr}
     1c2:	b082      	sub	sp, #8
     1c4:	af00      	add	r7, sp, #0
     1c6:	0002      	movs	r2, r0
     1c8:	1dfb      	adds	r3, r7, #7
     1ca:	701a      	strb	r2, [r3, #0]
     1cc:	1dfb      	adds	r3, r7, #7
     1ce:	781b      	ldrb	r3, [r3, #0]
     1d0:	2b7f      	cmp	r3, #127	; 0x7f
     1d2:	d809      	bhi.n	1e8 <__NVIC_EnableIRQ+0x28>
     1d4:	1dfb      	adds	r3, r7, #7
     1d6:	781b      	ldrb	r3, [r3, #0]
     1d8:	001a      	movs	r2, r3
     1da:	231f      	movs	r3, #31
     1dc:	401a      	ands	r2, r3
     1de:	4b04      	ldr	r3, [pc, #16]	; (1f0 <__NVIC_EnableIRQ+0x30>)
     1e0:	2101      	movs	r1, #1
     1e2:	4091      	lsls	r1, r2
     1e4:	000a      	movs	r2, r1
     1e6:	601a      	str	r2, [r3, #0]
     1e8:	46c0      	nop			; (mov r8, r8)
     1ea:	46bd      	mov	sp, r7
     1ec:	b002      	add	sp, #8
     1ee:	bd80      	pop	{r7, pc}
     1f0:	e000e100 	.word	0xe000e100

000001f4 <__NVIC_DisableIRQ>:
     1f4:	b580      	push	{r7, lr}
     1f6:	b082      	sub	sp, #8
     1f8:	af00      	add	r7, sp, #0
     1fa:	0002      	movs	r2, r0
     1fc:	1dfb      	adds	r3, r7, #7
     1fe:	701a      	strb	r2, [r3, #0]
     200:	1dfb      	adds	r3, r7, #7
     202:	781b      	ldrb	r3, [r3, #0]
     204:	2b7f      	cmp	r3, #127	; 0x7f
     206:	d810      	bhi.n	22a <__NVIC_DisableIRQ+0x36>
     208:	1dfb      	adds	r3, r7, #7
     20a:	781b      	ldrb	r3, [r3, #0]
     20c:	001a      	movs	r2, r3
     20e:	231f      	movs	r3, #31
     210:	4013      	ands	r3, r2
     212:	4908      	ldr	r1, [pc, #32]	; (234 <__NVIC_DisableIRQ+0x40>)
     214:	2201      	movs	r2, #1
     216:	409a      	lsls	r2, r3
     218:	0013      	movs	r3, r2
     21a:	2280      	movs	r2, #128	; 0x80
     21c:	508b      	str	r3, [r1, r2]
     21e:	f3bf 8f4f 	dsb	sy
     222:	46c0      	nop			; (mov r8, r8)
     224:	f3bf 8f6f 	isb	sy
     228:	46c0      	nop			; (mov r8, r8)
     22a:	46c0      	nop			; (mov r8, r8)
     22c:	46bd      	mov	sp, r7
     22e:	b002      	add	sp, #8
     230:	bd80      	pop	{r7, pc}
     232:	46c0      	nop			; (mov r8, r8)
     234:	e000e100 	.word	0xe000e100

00000238 <__NVIC_ClearPendingIRQ>:
     238:	b580      	push	{r7, lr}
     23a:	b082      	sub	sp, #8
     23c:	af00      	add	r7, sp, #0
     23e:	0002      	movs	r2, r0
     240:	1dfb      	adds	r3, r7, #7
     242:	701a      	strb	r2, [r3, #0]
     244:	1dfb      	adds	r3, r7, #7
     246:	781b      	ldrb	r3, [r3, #0]
     248:	2b7f      	cmp	r3, #127	; 0x7f
     24a:	d80a      	bhi.n	262 <__NVIC_ClearPendingIRQ+0x2a>
     24c:	1dfb      	adds	r3, r7, #7
     24e:	781b      	ldrb	r3, [r3, #0]
     250:	001a      	movs	r2, r3
     252:	231f      	movs	r3, #31
     254:	4013      	ands	r3, r2
     256:	4905      	ldr	r1, [pc, #20]	; (26c <__NVIC_ClearPendingIRQ+0x34>)
     258:	2201      	movs	r2, #1
     25a:	409a      	lsls	r2, r3
     25c:	23c0      	movs	r3, #192	; 0xc0
     25e:	005b      	lsls	r3, r3, #1
     260:	50ca      	str	r2, [r1, r3]
     262:	46c0      	nop			; (mov r8, r8)
     264:	46bd      	mov	sp, r7
     266:	b002      	add	sp, #8
     268:	bd80      	pop	{r7, pc}
     26a:	46c0      	nop			; (mov r8, r8)
     26c:	e000e100 	.word	0xe000e100

00000270 <__NVIC_SetPriority>:
     270:	b590      	push	{r4, r7, lr}
     272:	b083      	sub	sp, #12
     274:	af00      	add	r7, sp, #0
     276:	0002      	movs	r2, r0
     278:	6039      	str	r1, [r7, #0]
     27a:	1dfb      	adds	r3, r7, #7
     27c:	701a      	strb	r2, [r3, #0]
     27e:	1dfb      	adds	r3, r7, #7
     280:	781b      	ldrb	r3, [r3, #0]
     282:	2b7f      	cmp	r3, #127	; 0x7f
     284:	d828      	bhi.n	2d8 <__NVIC_SetPriority+0x68>
     286:	4a2f      	ldr	r2, [pc, #188]	; (344 <__NVIC_SetPriority+0xd4>)
     288:	1dfb      	adds	r3, r7, #7
     28a:	781b      	ldrb	r3, [r3, #0]
     28c:	b25b      	sxtb	r3, r3
     28e:	089b      	lsrs	r3, r3, #2
     290:	33c0      	adds	r3, #192	; 0xc0
     292:	009b      	lsls	r3, r3, #2
     294:	589b      	ldr	r3, [r3, r2]
     296:	1dfa      	adds	r2, r7, #7
     298:	7812      	ldrb	r2, [r2, #0]
     29a:	0011      	movs	r1, r2
     29c:	2203      	movs	r2, #3
     29e:	400a      	ands	r2, r1
     2a0:	00d2      	lsls	r2, r2, #3
     2a2:	21ff      	movs	r1, #255	; 0xff
     2a4:	4091      	lsls	r1, r2
     2a6:	000a      	movs	r2, r1
     2a8:	43d2      	mvns	r2, r2
     2aa:	401a      	ands	r2, r3
     2ac:	0011      	movs	r1, r2
     2ae:	683b      	ldr	r3, [r7, #0]
     2b0:	019b      	lsls	r3, r3, #6
     2b2:	22ff      	movs	r2, #255	; 0xff
     2b4:	401a      	ands	r2, r3
     2b6:	1dfb      	adds	r3, r7, #7
     2b8:	781b      	ldrb	r3, [r3, #0]
     2ba:	0018      	movs	r0, r3
     2bc:	2303      	movs	r3, #3
     2be:	4003      	ands	r3, r0
     2c0:	00db      	lsls	r3, r3, #3
     2c2:	409a      	lsls	r2, r3
     2c4:	481f      	ldr	r0, [pc, #124]	; (344 <__NVIC_SetPriority+0xd4>)
     2c6:	1dfb      	adds	r3, r7, #7
     2c8:	781b      	ldrb	r3, [r3, #0]
     2ca:	b25b      	sxtb	r3, r3
     2cc:	089b      	lsrs	r3, r3, #2
     2ce:	430a      	orrs	r2, r1
     2d0:	33c0      	adds	r3, #192	; 0xc0
     2d2:	009b      	lsls	r3, r3, #2
     2d4:	501a      	str	r2, [r3, r0]
     2d6:	e031      	b.n	33c <__NVIC_SetPriority+0xcc>
     2d8:	4a1b      	ldr	r2, [pc, #108]	; (348 <__NVIC_SetPriority+0xd8>)
     2da:	1dfb      	adds	r3, r7, #7
     2dc:	781b      	ldrb	r3, [r3, #0]
     2de:	0019      	movs	r1, r3
     2e0:	230f      	movs	r3, #15
     2e2:	400b      	ands	r3, r1
     2e4:	3b08      	subs	r3, #8
     2e6:	089b      	lsrs	r3, r3, #2
     2e8:	3306      	adds	r3, #6
     2ea:	009b      	lsls	r3, r3, #2
     2ec:	18d3      	adds	r3, r2, r3
     2ee:	3304      	adds	r3, #4
     2f0:	681b      	ldr	r3, [r3, #0]
     2f2:	1dfa      	adds	r2, r7, #7
     2f4:	7812      	ldrb	r2, [r2, #0]
     2f6:	0011      	movs	r1, r2
     2f8:	2203      	movs	r2, #3
     2fa:	400a      	ands	r2, r1
     2fc:	00d2      	lsls	r2, r2, #3
     2fe:	21ff      	movs	r1, #255	; 0xff
     300:	4091      	lsls	r1, r2
     302:	000a      	movs	r2, r1
     304:	43d2      	mvns	r2, r2
     306:	401a      	ands	r2, r3
     308:	0011      	movs	r1, r2
     30a:	683b      	ldr	r3, [r7, #0]
     30c:	019b      	lsls	r3, r3, #6
     30e:	22ff      	movs	r2, #255	; 0xff
     310:	401a      	ands	r2, r3
     312:	1dfb      	adds	r3, r7, #7
     314:	781b      	ldrb	r3, [r3, #0]
     316:	0018      	movs	r0, r3
     318:	2303      	movs	r3, #3
     31a:	4003      	ands	r3, r0
     31c:	00db      	lsls	r3, r3, #3
     31e:	409a      	lsls	r2, r3
     320:	4809      	ldr	r0, [pc, #36]	; (348 <__NVIC_SetPriority+0xd8>)
     322:	1dfb      	adds	r3, r7, #7
     324:	781b      	ldrb	r3, [r3, #0]
     326:	001c      	movs	r4, r3
     328:	230f      	movs	r3, #15
     32a:	4023      	ands	r3, r4
     32c:	3b08      	subs	r3, #8
     32e:	089b      	lsrs	r3, r3, #2
     330:	430a      	orrs	r2, r1
     332:	3306      	adds	r3, #6
     334:	009b      	lsls	r3, r3, #2
     336:	18c3      	adds	r3, r0, r3
     338:	3304      	adds	r3, #4
     33a:	601a      	str	r2, [r3, #0]
     33c:	46c0      	nop			; (mov r8, r8)
     33e:	46bd      	mov	sp, r7
     340:	b003      	add	sp, #12
     342:	bd90      	pop	{r4, r7, pc}
     344:	e000e100 	.word	0xe000e100
     348:	e000ed00 	.word	0xe000ed00

0000034c <peripheral_set_enabled>:
     34c:	b580      	push	{r7, lr}
     34e:	b082      	sub	sp, #8
     350:	af00      	add	r7, sp, #0
     352:	6078      	str	r0, [r7, #4]
     354:	4b03      	ldr	r3, [pc, #12]	; (364 <peripheral_set_enabled+0x18>)
     356:	687a      	ldr	r2, [r7, #4]
     358:	621a      	str	r2, [r3, #32]
     35a:	46c0      	nop			; (mov r8, r8)
     35c:	46bd      	mov	sp, r7
     35e:	b002      	add	sp, #8
     360:	bd80      	pop	{r7, pc}
     362:	46c0      	nop			; (mov r8, r8)
     364:	40002000 	.word	0x40002000

00000368 <peripheral_get_enabled>:
     368:	b580      	push	{r7, lr}
     36a:	af00      	add	r7, sp, #0
     36c:	4b02      	ldr	r3, [pc, #8]	; (378 <peripheral_get_enabled+0x10>)
     36e:	6a1b      	ldr	r3, [r3, #32]
     370:	0018      	movs	r0, r3
     372:	46bd      	mov	sp, r7
     374:	bd80      	pop	{r7, pc}
     376:	46c0      	nop			; (mov r8, r8)
     378:	40002000 	.word	0x40002000

0000037c <nvic_configure_interrupt>:
     37c:	b590      	push	{r4, r7, lr}
     37e:	b083      	sub	sp, #12
     380:	af00      	add	r7, sp, #0
     382:	0004      	movs	r4, r0
     384:	0008      	movs	r0, r1
     386:	0011      	movs	r1, r2
     388:	1dfb      	adds	r3, r7, #7
     38a:	1c22      	adds	r2, r4, #0
     38c:	701a      	strb	r2, [r3, #0]
     38e:	1dbb      	adds	r3, r7, #6
     390:	1c02      	adds	r2, r0, #0
     392:	701a      	strb	r2, [r3, #0]
     394:	1d7b      	adds	r3, r7, #5
     396:	1c0a      	adds	r2, r1, #0
     398:	701a      	strb	r2, [r3, #0]
     39a:	1dfb      	adds	r3, r7, #7
     39c:	781b      	ldrb	r3, [r3, #0]
     39e:	b25b      	sxtb	r3, r3
     3a0:	0018      	movs	r0, r3
     3a2:	f7ff ff49 	bl	238 <__NVIC_ClearPendingIRQ>
     3a6:	1dbb      	adds	r3, r7, #6
     3a8:	781a      	ldrb	r2, [r3, #0]
     3aa:	1dfb      	adds	r3, r7, #7
     3ac:	781b      	ldrb	r3, [r3, #0]
     3ae:	b25b      	sxtb	r3, r3
     3b0:	0011      	movs	r1, r2
     3b2:	0018      	movs	r0, r3
     3b4:	f7ff ff5c 	bl	270 <__NVIC_SetPriority>
     3b8:	1d7b      	adds	r3, r7, #5
     3ba:	781b      	ldrb	r3, [r3, #0]
     3bc:	2b00      	cmp	r3, #0
     3be:	d006      	beq.n	3ce <nvic_configure_interrupt+0x52>
     3c0:	1dfb      	adds	r3, r7, #7
     3c2:	781b      	ldrb	r3, [r3, #0]
     3c4:	b25b      	sxtb	r3, r3
     3c6:	0018      	movs	r0, r3
     3c8:	f7ff fefa 	bl	1c0 <__NVIC_EnableIRQ>
     3cc:	e005      	b.n	3da <nvic_configure_interrupt+0x5e>
     3ce:	1dfb      	adds	r3, r7, #7
     3d0:	781b      	ldrb	r3, [r3, #0]
     3d2:	b25b      	sxtb	r3, r3
     3d4:	0018      	movs	r0, r3
     3d6:	f7ff ff0d 	bl	1f4 <__NVIC_DisableIRQ>
     3da:	46c0      	nop			; (mov r8, r8)
     3dc:	46bd      	mov	sp, r7
     3de:	b003      	add	sp, #12
     3e0:	bd90      	pop	{r4, r7, pc}

000003e2 <__clock_interpolate>:
     3e2:	b590      	push	{r4, r7, lr}
     3e4:	b085      	sub	sp, #20
     3e6:	af00      	add	r7, sp, #0
     3e8:	60f8      	str	r0, [r7, #12]
     3ea:	60b9      	str	r1, [r7, #8]
     3ec:	607a      	str	r2, [r7, #4]
     3ee:	603b      	str	r3, [r7, #0]
     3f0:	68fa      	ldr	r2, [r7, #12]
     3f2:	68bb      	ldr	r3, [r7, #8]
     3f4:	1ad4      	subs	r4, r2, r3
     3f6:	6a3a      	ldr	r2, [r7, #32]
     3f8:	683b      	ldr	r3, [r7, #0]
     3fa:	1ad0      	subs	r0, r2, r3
     3fc:	687a      	ldr	r2, [r7, #4]
     3fe:	68bb      	ldr	r3, [r7, #8]
     400:	1ad3      	subs	r3, r2, r3
     402:	0019      	movs	r1, r3
     404:	f000 ff18 	bl	1238 <__udivsi3>
     408:	0003      	movs	r3, r0
     40a:	4363      	muls	r3, r4
     40c:	001a      	movs	r2, r3
     40e:	683b      	ldr	r3, [r7, #0]
     410:	18d3      	adds	r3, r2, r3
     412:	22fa      	movs	r2, #250	; 0xfa
     414:	0091      	lsls	r1, r2, #2
     416:	0018      	movs	r0, r3
     418:	f000 ff0e 	bl	1238 <__udivsi3>
     41c:	0003      	movs	r3, r0
     41e:	0018      	movs	r0, r3
     420:	46bd      	mov	sp, r7
     422:	b005      	add	sp, #20
     424:	bd90      	pop	{r4, r7, pc}
	...

00000428 <__calculate_rch_trim>:
     428:	b590      	push	{r4, r7, lr}
     42a:	b085      	sub	sp, #20
     42c:	af02      	add	r7, sp, #8
     42e:	6078      	str	r0, [r7, #4]
     430:	687b      	ldr	r3, [r7, #4]
     432:	4a78      	ldr	r2, [pc, #480]	; (614 <__calculate_rch_trim+0x1ec>)
     434:	4293      	cmp	r3, r2
     436:	d819      	bhi.n	46c <__calculate_rch_trim+0x44>
     438:	4b77      	ldr	r3, [pc, #476]	; (618 <__calculate_rch_trim+0x1f0>)
     43a:	881b      	ldrh	r3, [r3, #0]
     43c:	b29b      	uxth	r3, r3
     43e:	22fa      	movs	r2, #250	; 0xfa
     440:	0092      	lsls	r2, r2, #2
     442:	4353      	muls	r3, r2
     444:	b29a      	uxth	r2, r3
     446:	687b      	ldr	r3, [r7, #4]
     448:	b29b      	uxth	r3, r3
     44a:	1c19      	adds	r1, r3, #0
     44c:	00c9      	lsls	r1, r1, #3
     44e:	1ac9      	subs	r1, r1, r3
     450:	0089      	lsls	r1, r1, #2
     452:	18cb      	adds	r3, r1, r3
     454:	1c19      	adds	r1, r3, #0
     456:	0149      	lsls	r1, r1, #5
     458:	1acb      	subs	r3, r1, r3
     45a:	019b      	lsls	r3, r3, #6
     45c:	b29b      	uxth	r3, r3
     45e:	1ad3      	subs	r3, r2, r3
     460:	b29b      	uxth	r3, r3
     462:	4a6e      	ldr	r2, [pc, #440]	; (61c <__calculate_rch_trim+0x1f4>)
     464:	4694      	mov	ip, r2
     466:	4463      	add	r3, ip
     468:	b29b      	uxth	r3, r3
     46a:	e0ce      	b.n	60a <__calculate_rch_trim+0x1e2>
     46c:	687b      	ldr	r3, [r7, #4]
     46e:	4a69      	ldr	r2, [pc, #420]	; (614 <__calculate_rch_trim+0x1ec>)
     470:	4293      	cmp	r3, r2
     472:	d800      	bhi.n	476 <__calculate_rch_trim+0x4e>
     474:	e0c8      	b.n	608 <__calculate_rch_trim+0x1e0>
     476:	687b      	ldr	r3, [r7, #4]
     478:	4a69      	ldr	r2, [pc, #420]	; (620 <__calculate_rch_trim+0x1f8>)
     47a:	4293      	cmp	r3, r2
     47c:	d900      	bls.n	480 <__calculate_rch_trim+0x58>
     47e:	e0c3      	b.n	608 <__calculate_rch_trim+0x1e0>
     480:	687b      	ldr	r3, [r7, #4]
     482:	4a68      	ldr	r2, [pc, #416]	; (624 <__calculate_rch_trim+0x1fc>)
     484:	4293      	cmp	r3, r2
     486:	d107      	bne.n	498 <__calculate_rch_trim+0x70>
     488:	4b63      	ldr	r3, [pc, #396]	; (618 <__calculate_rch_trim+0x1f0>)
     48a:	881b      	ldrh	r3, [r3, #0]
     48c:	b29b      	uxth	r3, r3
     48e:	22fa      	movs	r2, #250	; 0xfa
     490:	0092      	lsls	r2, r2, #2
     492:	4353      	muls	r3, r2
     494:	b29b      	uxth	r3, r3
     496:	e0b8      	b.n	60a <__calculate_rch_trim+0x1e2>
     498:	687b      	ldr	r3, [r7, #4]
     49a:	4a63      	ldr	r2, [pc, #396]	; (628 <__calculate_rch_trim+0x200>)
     49c:	4293      	cmp	r3, r2
     49e:	d81e      	bhi.n	4de <__calculate_rch_trim+0xb6>
     4a0:	4b5d      	ldr	r3, [pc, #372]	; (618 <__calculate_rch_trim+0x1f0>)
     4a2:	881b      	ldrh	r3, [r3, #0]
     4a4:	b29b      	uxth	r3, r3
     4a6:	001a      	movs	r2, r3
     4a8:	0013      	movs	r3, r2
     4aa:	015b      	lsls	r3, r3, #5
     4ac:	1a9b      	subs	r3, r3, r2
     4ae:	009b      	lsls	r3, r3, #2
     4b0:	189b      	adds	r3, r3, r2
     4b2:	00db      	lsls	r3, r3, #3
     4b4:	001c      	movs	r4, r3
     4b6:	4b5d      	ldr	r3, [pc, #372]	; (62c <__calculate_rch_trim+0x204>)
     4b8:	881b      	ldrh	r3, [r3, #0]
     4ba:	b29b      	uxth	r3, r3
     4bc:	001a      	movs	r2, r3
     4be:	0013      	movs	r3, r2
     4c0:	015b      	lsls	r3, r3, #5
     4c2:	1a9b      	subs	r3, r3, r2
     4c4:	009b      	lsls	r3, r3, #2
     4c6:	189b      	adds	r3, r3, r2
     4c8:	00db      	lsls	r3, r3, #3
     4ca:	4a59      	ldr	r2, [pc, #356]	; (630 <__calculate_rch_trim+0x208>)
     4cc:	4955      	ldr	r1, [pc, #340]	; (624 <__calculate_rch_trim+0x1fc>)
     4ce:	6878      	ldr	r0, [r7, #4]
     4d0:	9300      	str	r3, [sp, #0]
     4d2:	0023      	movs	r3, r4
     4d4:	f7ff ff85 	bl	3e2 <__clock_interpolate>
     4d8:	0003      	movs	r3, r0
     4da:	b29b      	uxth	r3, r3
     4dc:	e095      	b.n	60a <__calculate_rch_trim+0x1e2>
     4de:	687b      	ldr	r3, [r7, #4]
     4e0:	4a53      	ldr	r2, [pc, #332]	; (630 <__calculate_rch_trim+0x208>)
     4e2:	4293      	cmp	r3, r2
     4e4:	d107      	bne.n	4f6 <__calculate_rch_trim+0xce>
     4e6:	4b51      	ldr	r3, [pc, #324]	; (62c <__calculate_rch_trim+0x204>)
     4e8:	881b      	ldrh	r3, [r3, #0]
     4ea:	b29b      	uxth	r3, r3
     4ec:	22fa      	movs	r2, #250	; 0xfa
     4ee:	0092      	lsls	r2, r2, #2
     4f0:	4353      	muls	r3, r2
     4f2:	b29b      	uxth	r3, r3
     4f4:	e089      	b.n	60a <__calculate_rch_trim+0x1e2>
     4f6:	687b      	ldr	r3, [r7, #4]
     4f8:	4a4e      	ldr	r2, [pc, #312]	; (634 <__calculate_rch_trim+0x20c>)
     4fa:	4293      	cmp	r3, r2
     4fc:	d81e      	bhi.n	53c <__calculate_rch_trim+0x114>
     4fe:	4b4b      	ldr	r3, [pc, #300]	; (62c <__calculate_rch_trim+0x204>)
     500:	881b      	ldrh	r3, [r3, #0]
     502:	b29b      	uxth	r3, r3
     504:	001a      	movs	r2, r3
     506:	0013      	movs	r3, r2
     508:	015b      	lsls	r3, r3, #5
     50a:	1a9b      	subs	r3, r3, r2
     50c:	009b      	lsls	r3, r3, #2
     50e:	189b      	adds	r3, r3, r2
     510:	00db      	lsls	r3, r3, #3
     512:	001c      	movs	r4, r3
     514:	4b48      	ldr	r3, [pc, #288]	; (638 <__calculate_rch_trim+0x210>)
     516:	881b      	ldrh	r3, [r3, #0]
     518:	b29b      	uxth	r3, r3
     51a:	001a      	movs	r2, r3
     51c:	0013      	movs	r3, r2
     51e:	015b      	lsls	r3, r3, #5
     520:	1a9b      	subs	r3, r3, r2
     522:	009b      	lsls	r3, r3, #2
     524:	189b      	adds	r3, r3, r2
     526:	00db      	lsls	r3, r3, #3
     528:	4a44      	ldr	r2, [pc, #272]	; (63c <__calculate_rch_trim+0x214>)
     52a:	4941      	ldr	r1, [pc, #260]	; (630 <__calculate_rch_trim+0x208>)
     52c:	6878      	ldr	r0, [r7, #4]
     52e:	9300      	str	r3, [sp, #0]
     530:	0023      	movs	r3, r4
     532:	f7ff ff56 	bl	3e2 <__clock_interpolate>
     536:	0003      	movs	r3, r0
     538:	b29b      	uxth	r3, r3
     53a:	e066      	b.n	60a <__calculate_rch_trim+0x1e2>
     53c:	687b      	ldr	r3, [r7, #4]
     53e:	4a3f      	ldr	r2, [pc, #252]	; (63c <__calculate_rch_trim+0x214>)
     540:	4293      	cmp	r3, r2
     542:	d107      	bne.n	554 <__calculate_rch_trim+0x12c>
     544:	4b3c      	ldr	r3, [pc, #240]	; (638 <__calculate_rch_trim+0x210>)
     546:	881b      	ldrh	r3, [r3, #0]
     548:	b29b      	uxth	r3, r3
     54a:	22fa      	movs	r2, #250	; 0xfa
     54c:	0092      	lsls	r2, r2, #2
     54e:	4353      	muls	r3, r2
     550:	b29b      	uxth	r3, r3
     552:	e05a      	b.n	60a <__calculate_rch_trim+0x1e2>
     554:	687b      	ldr	r3, [r7, #4]
     556:	4a3a      	ldr	r2, [pc, #232]	; (640 <__calculate_rch_trim+0x218>)
     558:	4293      	cmp	r3, r2
     55a:	d81e      	bhi.n	59a <__calculate_rch_trim+0x172>
     55c:	4b36      	ldr	r3, [pc, #216]	; (638 <__calculate_rch_trim+0x210>)
     55e:	881b      	ldrh	r3, [r3, #0]
     560:	b29b      	uxth	r3, r3
     562:	001a      	movs	r2, r3
     564:	0013      	movs	r3, r2
     566:	015b      	lsls	r3, r3, #5
     568:	1a9b      	subs	r3, r3, r2
     56a:	009b      	lsls	r3, r3, #2
     56c:	189b      	adds	r3, r3, r2
     56e:	00db      	lsls	r3, r3, #3
     570:	001c      	movs	r4, r3
     572:	4b34      	ldr	r3, [pc, #208]	; (644 <__calculate_rch_trim+0x21c>)
     574:	881b      	ldrh	r3, [r3, #0]
     576:	b29b      	uxth	r3, r3
     578:	001a      	movs	r2, r3
     57a:	0013      	movs	r3, r2
     57c:	015b      	lsls	r3, r3, #5
     57e:	1a9b      	subs	r3, r3, r2
     580:	009b      	lsls	r3, r3, #2
     582:	189b      	adds	r3, r3, r2
     584:	00db      	lsls	r3, r3, #3
     586:	4a30      	ldr	r2, [pc, #192]	; (648 <__calculate_rch_trim+0x220>)
     588:	492c      	ldr	r1, [pc, #176]	; (63c <__calculate_rch_trim+0x214>)
     58a:	6878      	ldr	r0, [r7, #4]
     58c:	9300      	str	r3, [sp, #0]
     58e:	0023      	movs	r3, r4
     590:	f7ff ff27 	bl	3e2 <__clock_interpolate>
     594:	0003      	movs	r3, r0
     596:	b29b      	uxth	r3, r3
     598:	e037      	b.n	60a <__calculate_rch_trim+0x1e2>
     59a:	687b      	ldr	r3, [r7, #4]
     59c:	4a2a      	ldr	r2, [pc, #168]	; (648 <__calculate_rch_trim+0x220>)
     59e:	4293      	cmp	r3, r2
     5a0:	d107      	bne.n	5b2 <__calculate_rch_trim+0x18a>
     5a2:	4b28      	ldr	r3, [pc, #160]	; (644 <__calculate_rch_trim+0x21c>)
     5a4:	881b      	ldrh	r3, [r3, #0]
     5a6:	b29b      	uxth	r3, r3
     5a8:	22fa      	movs	r2, #250	; 0xfa
     5aa:	0092      	lsls	r2, r2, #2
     5ac:	4353      	muls	r3, r2
     5ae:	b29b      	uxth	r3, r3
     5b0:	e02b      	b.n	60a <__calculate_rch_trim+0x1e2>
     5b2:	687b      	ldr	r3, [r7, #4]
     5b4:	4a25      	ldr	r2, [pc, #148]	; (64c <__calculate_rch_trim+0x224>)
     5b6:	4293      	cmp	r3, r2
     5b8:	d81e      	bhi.n	5f8 <__calculate_rch_trim+0x1d0>
     5ba:	4b22      	ldr	r3, [pc, #136]	; (644 <__calculate_rch_trim+0x21c>)
     5bc:	881b      	ldrh	r3, [r3, #0]
     5be:	b29b      	uxth	r3, r3
     5c0:	001a      	movs	r2, r3
     5c2:	0013      	movs	r3, r2
     5c4:	015b      	lsls	r3, r3, #5
     5c6:	1a9b      	subs	r3, r3, r2
     5c8:	009b      	lsls	r3, r3, #2
     5ca:	189b      	adds	r3, r3, r2
     5cc:	00db      	lsls	r3, r3, #3
     5ce:	001c      	movs	r4, r3
     5d0:	4b1f      	ldr	r3, [pc, #124]	; (650 <__calculate_rch_trim+0x228>)
     5d2:	881b      	ldrh	r3, [r3, #0]
     5d4:	b29b      	uxth	r3, r3
     5d6:	001a      	movs	r2, r3
     5d8:	0013      	movs	r3, r2
     5da:	015b      	lsls	r3, r3, #5
     5dc:	1a9b      	subs	r3, r3, r2
     5de:	009b      	lsls	r3, r3, #2
     5e0:	189b      	adds	r3, r3, r2
     5e2:	00db      	lsls	r3, r3, #3
     5e4:	4a0e      	ldr	r2, [pc, #56]	; (620 <__calculate_rch_trim+0x1f8>)
     5e6:	4918      	ldr	r1, [pc, #96]	; (648 <__calculate_rch_trim+0x220>)
     5e8:	6878      	ldr	r0, [r7, #4]
     5ea:	9300      	str	r3, [sp, #0]
     5ec:	0023      	movs	r3, r4
     5ee:	f7ff fef8 	bl	3e2 <__clock_interpolate>
     5f2:	0003      	movs	r3, r0
     5f4:	b29b      	uxth	r3, r3
     5f6:	e008      	b.n	60a <__calculate_rch_trim+0x1e2>
     5f8:	4b12      	ldr	r3, [pc, #72]	; (644 <__calculate_rch_trim+0x21c>)
     5fa:	881b      	ldrh	r3, [r3, #0]
     5fc:	b29b      	uxth	r3, r3
     5fe:	22fa      	movs	r2, #250	; 0xfa
     600:	0092      	lsls	r2, r2, #2
     602:	4353      	muls	r3, r2
     604:	b29b      	uxth	r3, r3
     606:	e000      	b.n	60a <__calculate_rch_trim+0x1e2>
     608:	2300      	movs	r3, #0
     60a:	0018      	movs	r0, r3
     60c:	46bd      	mov	sp, r7
     60e:	b003      	add	sp, #12
     610:	bd90      	pop	{r4, r7, pc}
     612:	46c0      	nop			; (mov r8, r8)
     614:	003d08ff 	.word	0x003d08ff
     618:	00100c08 	.word	0x00100c08
     61c:	ffffc000 	.word	0xffffc000
     620:	016e3600 	.word	0x016e3600
     624:	003d0900 	.word	0x003d0900
     628:	007a11ff 	.word	0x007a11ff
     62c:	00100c06 	.word	0x00100c06
     630:	007a1200 	.word	0x007a1200
     634:	00f423ff 	.word	0x00f423ff
     638:	00100c04 	.word	0x00100c04
     63c:	00f42400 	.word	0x00f42400
     640:	0151863f 	.word	0x0151863f
     644:	00100c02 	.word	0x00100c02
     648:	01518640 	.word	0x01518640
     64c:	016e35ff 	.word	0x016e35ff
     650:	00100c00 	.word	0x00100c00

00000654 <__calculate_rcl_trim>:
     654:	b5b0      	push	{r4, r5, r7, lr}
     656:	b084      	sub	sp, #16
     658:	af02      	add	r7, sp, #8
     65a:	6078      	str	r0, [r7, #4]
     65c:	687b      	ldr	r3, [r7, #4]
     65e:	4a23      	ldr	r2, [pc, #140]	; (6ec <__calculate_rcl_trim+0x98>)
     660:	4293      	cmp	r3, r2
     662:	d107      	bne.n	674 <__calculate_rcl_trim+0x20>
     664:	4b22      	ldr	r3, [pc, #136]	; (6f0 <__calculate_rcl_trim+0x9c>)
     666:	881b      	ldrh	r3, [r3, #0]
     668:	b29b      	uxth	r3, r3
     66a:	22fa      	movs	r2, #250	; 0xfa
     66c:	0092      	lsls	r2, r2, #2
     66e:	4353      	muls	r3, r2
     670:	b29b      	uxth	r3, r3
     672:	e037      	b.n	6e4 <__calculate_rcl_trim+0x90>
     674:	687a      	ldr	r2, [r7, #4]
     676:	2396      	movs	r3, #150	; 0x96
     678:	021b      	lsls	r3, r3, #8
     67a:	429a      	cmp	r2, r3
     67c:	d107      	bne.n	68e <__calculate_rcl_trim+0x3a>
     67e:	4b1d      	ldr	r3, [pc, #116]	; (6f4 <__calculate_rcl_trim+0xa0>)
     680:	881b      	ldrh	r3, [r3, #0]
     682:	b29b      	uxth	r3, r3
     684:	22fa      	movs	r2, #250	; 0xfa
     686:	0092      	lsls	r2, r2, #2
     688:	4353      	muls	r3, r2
     68a:	b29b      	uxth	r3, r3
     68c:	e02a      	b.n	6e4 <__calculate_rcl_trim+0x90>
     68e:	687b      	ldr	r3, [r7, #4]
     690:	4a16      	ldr	r2, [pc, #88]	; (6ec <__calculate_rcl_trim+0x98>)
     692:	4293      	cmp	r3, r2
     694:	d925      	bls.n	6e2 <__calculate_rcl_trim+0x8e>
     696:	687a      	ldr	r2, [r7, #4]
     698:	2396      	movs	r3, #150	; 0x96
     69a:	021b      	lsls	r3, r3, #8
     69c:	429a      	cmp	r2, r3
     69e:	d220      	bcs.n	6e2 <__calculate_rcl_trim+0x8e>
     6a0:	4b13      	ldr	r3, [pc, #76]	; (6f0 <__calculate_rcl_trim+0x9c>)
     6a2:	881b      	ldrh	r3, [r3, #0]
     6a4:	b29b      	uxth	r3, r3
     6a6:	001a      	movs	r2, r3
     6a8:	0013      	movs	r3, r2
     6aa:	015b      	lsls	r3, r3, #5
     6ac:	1a9b      	subs	r3, r3, r2
     6ae:	009b      	lsls	r3, r3, #2
     6b0:	189b      	adds	r3, r3, r2
     6b2:	00db      	lsls	r3, r3, #3
     6b4:	001d      	movs	r5, r3
     6b6:	4b0e      	ldr	r3, [pc, #56]	; (6f0 <__calculate_rcl_trim+0x9c>)
     6b8:	881b      	ldrh	r3, [r3, #0]
     6ba:	b29b      	uxth	r3, r3
     6bc:	001a      	movs	r2, r3
     6be:	0013      	movs	r3, r2
     6c0:	015b      	lsls	r3, r3, #5
     6c2:	1a9b      	subs	r3, r3, r2
     6c4:	009b      	lsls	r3, r3, #2
     6c6:	189b      	adds	r3, r3, r2
     6c8:	00db      	lsls	r3, r3, #3
     6ca:	001c      	movs	r4, r3
     6cc:	2396      	movs	r3, #150	; 0x96
     6ce:	021a      	lsls	r2, r3, #8
     6d0:	4906      	ldr	r1, [pc, #24]	; (6ec <__calculate_rcl_trim+0x98>)
     6d2:	6878      	ldr	r0, [r7, #4]
     6d4:	9400      	str	r4, [sp, #0]
     6d6:	002b      	movs	r3, r5
     6d8:	f7ff fe83 	bl	3e2 <__clock_interpolate>
     6dc:	0003      	movs	r3, r0
     6de:	b29b      	uxth	r3, r3
     6e0:	e000      	b.n	6e4 <__calculate_rcl_trim+0x90>
     6e2:	2300      	movs	r3, #0
     6e4:	0018      	movs	r0, r3
     6e6:	46bd      	mov	sp, r7
     6e8:	b002      	add	sp, #8
     6ea:	bdb0      	pop	{r4, r5, r7, pc}
     6ec:	00008020 	.word	0x00008020
     6f0:	00100c22 	.word	0x00100c22
     6f4:	00100c20 	.word	0x00100c20

000006f8 <update_clock_freq_global>:
     6f8:	b580      	push	{r7, lr}
     6fa:	b082      	sub	sp, #8
     6fc:	af00      	add	r7, sp, #0
     6fe:	6078      	str	r0, [r7, #4]
     700:	0008      	movs	r0, r1
     702:	0011      	movs	r1, r2
     704:	1cfb      	adds	r3, r7, #3
     706:	1c02      	adds	r2, r0, #0
     708:	701a      	strb	r2, [r3, #0]
     70a:	1cbb      	adds	r3, r7, #2
     70c:	1c0a      	adds	r2, r1, #0
     70e:	701a      	strb	r2, [r3, #0]
     710:	4b20      	ldr	r3, [pc, #128]	; (794 <update_clock_freq_global+0x9c>)
     712:	4a21      	ldr	r2, [pc, #132]	; (798 <update_clock_freq_global+0xa0>)
     714:	609a      	str	r2, [r3, #8]
     716:	4b1f      	ldr	r3, [pc, #124]	; (794 <update_clock_freq_global+0x9c>)
     718:	4a20      	ldr	r2, [pc, #128]	; (79c <update_clock_freq_global+0xa4>)
     71a:	609a      	str	r2, [r3, #8]
     71c:	46c0      	nop			; (mov r8, r8)
     71e:	4b1d      	ldr	r3, [pc, #116]	; (794 <update_clock_freq_global+0x9c>)
     720:	1cfa      	adds	r2, r7, #3
     722:	7812      	ldrb	r2, [r2, #0]
     724:	2107      	movs	r1, #7
     726:	400a      	ands	r2, r1
     728:	b2d2      	uxtb	r2, r2
     72a:	1c11      	adds	r1, r2, #0
     72c:	2207      	movs	r2, #7
     72e:	400a      	ands	r2, r1
     730:	0190      	lsls	r0, r2, #6
     732:	881a      	ldrh	r2, [r3, #0]
     734:	491a      	ldr	r1, [pc, #104]	; (7a0 <update_clock_freq_global+0xa8>)
     736:	400a      	ands	r2, r1
     738:	1c11      	adds	r1, r2, #0
     73a:	1c02      	adds	r2, r0, #0
     73c:	430a      	orrs	r2, r1
     73e:	801a      	strh	r2, [r3, #0]
     740:	4b14      	ldr	r3, [pc, #80]	; (794 <update_clock_freq_global+0x9c>)
     742:	4a15      	ldr	r2, [pc, #84]	; (798 <update_clock_freq_global+0xa0>)
     744:	609a      	str	r2, [r3, #8]
     746:	4b13      	ldr	r3, [pc, #76]	; (794 <update_clock_freq_global+0x9c>)
     748:	4a14      	ldr	r2, [pc, #80]	; (79c <update_clock_freq_global+0xa4>)
     74a:	609a      	str	r2, [r3, #8]
     74c:	46c0      	nop			; (mov r8, r8)
     74e:	4b11      	ldr	r3, [pc, #68]	; (794 <update_clock_freq_global+0x9c>)
     750:	1cba      	adds	r2, r7, #2
     752:	7812      	ldrb	r2, [r2, #0]
     754:	2103      	movs	r1, #3
     756:	400a      	ands	r2, r1
     758:	b2d2      	uxtb	r2, r2
     75a:	1c11      	adds	r1, r2, #0
     75c:	2203      	movs	r2, #3
     75e:	400a      	ands	r2, r1
     760:	0250      	lsls	r0, r2, #9
     762:	881a      	ldrh	r2, [r3, #0]
     764:	490f      	ldr	r1, [pc, #60]	; (7a4 <update_clock_freq_global+0xac>)
     766:	400a      	ands	r2, r1
     768:	1c11      	adds	r1, r2, #0
     76a:	1c02      	adds	r2, r0, #0
     76c:	430a      	orrs	r2, r1
     76e:	801a      	strh	r2, [r3, #0]
     770:	1cfb      	adds	r3, r7, #3
     772:	781b      	ldrb	r3, [r3, #0]
     774:	687a      	ldr	r2, [r7, #4]
     776:	40da      	lsrs	r2, r3
     778:	4b0b      	ldr	r3, [pc, #44]	; (7a8 <update_clock_freq_global+0xb0>)
     77a:	601a      	str	r2, [r3, #0]
     77c:	4b0a      	ldr	r3, [pc, #40]	; (7a8 <update_clock_freq_global+0xb0>)
     77e:	681a      	ldr	r2, [r3, #0]
     780:	1cbb      	adds	r3, r7, #2
     782:	781b      	ldrb	r3, [r3, #0]
     784:	40da      	lsrs	r2, r3
     786:	4b09      	ldr	r3, [pc, #36]	; (7ac <update_clock_freq_global+0xb4>)
     788:	601a      	str	r2, [r3, #0]
     78a:	46c0      	nop			; (mov r8, r8)
     78c:	46bd      	mov	sp, r7
     78e:	b002      	add	sp, #8
     790:	bd80      	pop	{r7, pc}
     792:	46c0      	nop			; (mov r8, r8)
     794:	40002000 	.word	0x40002000
     798:	00005a5a 	.word	0x00005a5a
     79c:	0000a5a5 	.word	0x0000a5a5
     7a0:	fffffe3f 	.word	0xfffffe3f
     7a4:	fffff9ff 	.word	0xfffff9ff
     7a8:	20000000 	.word	0x20000000
     7ac:	20000004 	.word	0x20000004

000007b0 <set_system_clock_external_low>:
     7b0:	b580      	push	{r7, lr}
     7b2:	b082      	sub	sp, #8
     7b4:	af00      	add	r7, sp, #0
     7b6:	6078      	str	r0, [r7, #4]
     7b8:	0008      	movs	r0, r1
     7ba:	0011      	movs	r1, r2
     7bc:	1cfb      	adds	r3, r7, #3
     7be:	1c02      	adds	r2, r0, #0
     7c0:	701a      	strb	r2, [r3, #0]
     7c2:	1cbb      	adds	r3, r7, #2
     7c4:	1c0a      	adds	r2, r1, #0
     7c6:	701a      	strb	r2, [r3, #0]
     7c8:	4b2b      	ldr	r3, [pc, #172]	; (878 <set_system_clock_external_low+0xc8>)
     7ca:	2230      	movs	r2, #48	; 0x30
     7cc:	60da      	str	r2, [r3, #12]
     7ce:	4b2b      	ldr	r3, [pc, #172]	; (87c <set_system_clock_external_low+0xcc>)
     7d0:	7e1a      	ldrb	r2, [r3, #24]
     7d2:	2130      	movs	r1, #48	; 0x30
     7d4:	430a      	orrs	r2, r1
     7d6:	761a      	strb	r2, [r3, #24]
     7d8:	4b28      	ldr	r3, [pc, #160]	; (87c <set_system_clock_external_low+0xcc>)
     7da:	4a29      	ldr	r2, [pc, #164]	; (880 <set_system_clock_external_low+0xd0>)
     7dc:	609a      	str	r2, [r3, #8]
     7de:	4b27      	ldr	r3, [pc, #156]	; (87c <set_system_clock_external_low+0xcc>)
     7e0:	4a28      	ldr	r2, [pc, #160]	; (884 <set_system_clock_external_low+0xd4>)
     7e2:	609a      	str	r2, [r3, #8]
     7e4:	46c0      	nop			; (mov r8, r8)
     7e6:	4b25      	ldr	r3, [pc, #148]	; (87c <set_system_clock_external_low+0xcc>)
     7e8:	881a      	ldrh	r2, [r3, #0]
     7ea:	2108      	movs	r1, #8
     7ec:	430a      	orrs	r2, r1
     7ee:	801a      	strh	r2, [r3, #0]
     7f0:	46c0      	nop			; (mov r8, r8)
     7f2:	4b22      	ldr	r3, [pc, #136]	; (87c <set_system_clock_external_low+0xcc>)
     7f4:	699b      	ldr	r3, [r3, #24]
     7f6:	065b      	lsls	r3, r3, #25
     7f8:	0fdb      	lsrs	r3, r3, #31
     7fa:	b2db      	uxtb	r3, r3
     7fc:	2b01      	cmp	r3, #1
     7fe:	d1f8      	bne.n	7f2 <set_system_clock_external_low+0x42>
     800:	4b1e      	ldr	r3, [pc, #120]	; (87c <set_system_clock_external_low+0xcc>)
     802:	4a1f      	ldr	r2, [pc, #124]	; (880 <set_system_clock_external_low+0xd0>)
     804:	609a      	str	r2, [r3, #8]
     806:	4b1d      	ldr	r3, [pc, #116]	; (87c <set_system_clock_external_low+0xcc>)
     808:	4a1e      	ldr	r2, [pc, #120]	; (884 <set_system_clock_external_low+0xd4>)
     80a:	609a      	str	r2, [r3, #8]
     80c:	46c0      	nop			; (mov r8, r8)
     80e:	4b1b      	ldr	r3, [pc, #108]	; (87c <set_system_clock_external_low+0xcc>)
     810:	881a      	ldrh	r2, [r3, #0]
     812:	2130      	movs	r1, #48	; 0x30
     814:	430a      	orrs	r2, r1
     816:	801a      	strh	r2, [r3, #0]
     818:	4b18      	ldr	r3, [pc, #96]	; (87c <set_system_clock_external_low+0xcc>)
     81a:	4a19      	ldr	r2, [pc, #100]	; (880 <set_system_clock_external_low+0xd0>)
     81c:	609a      	str	r2, [r3, #8]
     81e:	4b17      	ldr	r3, [pc, #92]	; (87c <set_system_clock_external_low+0xcc>)
     820:	4a18      	ldr	r2, [pc, #96]	; (884 <set_system_clock_external_low+0xd4>)
     822:	609a      	str	r2, [r3, #8]
     824:	46c0      	nop			; (mov r8, r8)
     826:	4b15      	ldr	r3, [pc, #84]	; (87c <set_system_clock_external_low+0xcc>)
     828:	881a      	ldrh	r2, [r3, #0]
     82a:	2104      	movs	r1, #4
     82c:	438a      	bics	r2, r1
     82e:	801a      	strh	r2, [r3, #0]
     830:	4b12      	ldr	r3, [pc, #72]	; (87c <set_system_clock_external_low+0xcc>)
     832:	4a13      	ldr	r2, [pc, #76]	; (880 <set_system_clock_external_low+0xd0>)
     834:	609a      	str	r2, [r3, #8]
     836:	4b11      	ldr	r3, [pc, #68]	; (87c <set_system_clock_external_low+0xcc>)
     838:	4a12      	ldr	r2, [pc, #72]	; (884 <set_system_clock_external_low+0xd4>)
     83a:	609a      	str	r2, [r3, #8]
     83c:	46c0      	nop			; (mov r8, r8)
     83e:	4b0f      	ldr	r3, [pc, #60]	; (87c <set_system_clock_external_low+0xcc>)
     840:	881a      	ldrh	r2, [r3, #0]
     842:	2101      	movs	r1, #1
     844:	438a      	bics	r2, r1
     846:	801a      	strh	r2, [r3, #0]
     848:	4b0c      	ldr	r3, [pc, #48]	; (87c <set_system_clock_external_low+0xcc>)
     84a:	4a0d      	ldr	r2, [pc, #52]	; (880 <set_system_clock_external_low+0xd0>)
     84c:	609a      	str	r2, [r3, #8]
     84e:	4b0b      	ldr	r3, [pc, #44]	; (87c <set_system_clock_external_low+0xcc>)
     850:	4a0c      	ldr	r2, [pc, #48]	; (884 <set_system_clock_external_low+0xd4>)
     852:	609a      	str	r2, [r3, #8]
     854:	46c0      	nop			; (mov r8, r8)
     856:	4b09      	ldr	r3, [pc, #36]	; (87c <set_system_clock_external_low+0xcc>)
     858:	881a      	ldrh	r2, [r3, #0]
     85a:	2102      	movs	r1, #2
     85c:	438a      	bics	r2, r1
     85e:	801a      	strh	r2, [r3, #0]
     860:	1cbb      	adds	r3, r7, #2
     862:	781a      	ldrb	r2, [r3, #0]
     864:	1cfb      	adds	r3, r7, #3
     866:	7819      	ldrb	r1, [r3, #0]
     868:	687b      	ldr	r3, [r7, #4]
     86a:	0018      	movs	r0, r3
     86c:	f7ff ff44 	bl	6f8 <update_clock_freq_global>
     870:	46c0      	nop			; (mov r8, r8)
     872:	46bd      	mov	sp, r7
     874:	b002      	add	sp, #8
     876:	bd80      	pop	{r7, pc}
     878:	40020d00 	.word	0x40020d00
     87c:	40002000 	.word	0x40002000
     880:	00005a5a 	.word	0x00005a5a
     884:	0000a5a5 	.word	0x0000a5a5

00000888 <set_system_clock_external_high>:
     888:	b580      	push	{r7, lr}
     88a:	b082      	sub	sp, #8
     88c:	af00      	add	r7, sp, #0
     88e:	6078      	str	r0, [r7, #4]
     890:	0008      	movs	r0, r1
     892:	0011      	movs	r1, r2
     894:	1cfb      	adds	r3, r7, #3
     896:	1c02      	adds	r2, r0, #0
     898:	701a      	strb	r2, [r3, #0]
     89a:	1cbb      	adds	r3, r7, #2
     89c:	1c0a      	adds	r2, r1, #0
     89e:	701a      	strb	r2, [r3, #0]
     8a0:	4b2b      	ldr	r3, [pc, #172]	; (950 <set_system_clock_external_high+0xc8>)
     8a2:	7c1a      	ldrb	r2, [r3, #16]
     8a4:	2130      	movs	r1, #48	; 0x30
     8a6:	430a      	orrs	r2, r1
     8a8:	741a      	strb	r2, [r3, #16]
     8aa:	4b29      	ldr	r3, [pc, #164]	; (950 <set_system_clock_external_high+0xc8>)
     8ac:	4a29      	ldr	r2, [pc, #164]	; (954 <set_system_clock_external_high+0xcc>)
     8ae:	609a      	str	r2, [r3, #8]
     8b0:	4b27      	ldr	r3, [pc, #156]	; (950 <set_system_clock_external_high+0xc8>)
     8b2:	4a29      	ldr	r2, [pc, #164]	; (958 <set_system_clock_external_high+0xd0>)
     8b4:	609a      	str	r2, [r3, #8]
     8b6:	46c0      	nop			; (mov r8, r8)
     8b8:	4b25      	ldr	r3, [pc, #148]	; (950 <set_system_clock_external_high+0xc8>)
     8ba:	881a      	ldrh	r2, [r3, #0]
     8bc:	2102      	movs	r1, #2
     8be:	430a      	orrs	r2, r1
     8c0:	801a      	strh	r2, [r3, #0]
     8c2:	46c0      	nop			; (mov r8, r8)
     8c4:	4b22      	ldr	r3, [pc, #136]	; (950 <set_system_clock_external_high+0xc8>)
     8c6:	691b      	ldr	r3, [r3, #16]
     8c8:	065b      	lsls	r3, r3, #25
     8ca:	0fdb      	lsrs	r3, r3, #31
     8cc:	b2db      	uxtb	r3, r3
     8ce:	2b01      	cmp	r3, #1
     8d0:	d1f8      	bne.n	8c4 <set_system_clock_external_high+0x3c>
     8d2:	4b1f      	ldr	r3, [pc, #124]	; (950 <set_system_clock_external_high+0xc8>)
     8d4:	4a1f      	ldr	r2, [pc, #124]	; (954 <set_system_clock_external_high+0xcc>)
     8d6:	609a      	str	r2, [r3, #8]
     8d8:	4b1d      	ldr	r3, [pc, #116]	; (950 <set_system_clock_external_high+0xc8>)
     8da:	4a1f      	ldr	r2, [pc, #124]	; (958 <set_system_clock_external_high+0xd0>)
     8dc:	609a      	str	r2, [r3, #8]
     8de:	46c0      	nop			; (mov r8, r8)
     8e0:	4b1b      	ldr	r3, [pc, #108]	; (950 <set_system_clock_external_high+0xc8>)
     8e2:	881a      	ldrh	r2, [r3, #0]
     8e4:	2130      	movs	r1, #48	; 0x30
     8e6:	438a      	bics	r2, r1
     8e8:	1c11      	adds	r1, r2, #0
     8ea:	2210      	movs	r2, #16
     8ec:	430a      	orrs	r2, r1
     8ee:	801a      	strh	r2, [r3, #0]
     8f0:	4b17      	ldr	r3, [pc, #92]	; (950 <set_system_clock_external_high+0xc8>)
     8f2:	4a18      	ldr	r2, [pc, #96]	; (954 <set_system_clock_external_high+0xcc>)
     8f4:	609a      	str	r2, [r3, #8]
     8f6:	4b16      	ldr	r3, [pc, #88]	; (950 <set_system_clock_external_high+0xc8>)
     8f8:	4a17      	ldr	r2, [pc, #92]	; (958 <set_system_clock_external_high+0xd0>)
     8fa:	609a      	str	r2, [r3, #8]
     8fc:	46c0      	nop			; (mov r8, r8)
     8fe:	4b14      	ldr	r3, [pc, #80]	; (950 <set_system_clock_external_high+0xc8>)
     900:	881a      	ldrh	r2, [r3, #0]
     902:	2104      	movs	r1, #4
     904:	438a      	bics	r2, r1
     906:	801a      	strh	r2, [r3, #0]
     908:	4b11      	ldr	r3, [pc, #68]	; (950 <set_system_clock_external_high+0xc8>)
     90a:	4a12      	ldr	r2, [pc, #72]	; (954 <set_system_clock_external_high+0xcc>)
     90c:	609a      	str	r2, [r3, #8]
     90e:	4b10      	ldr	r3, [pc, #64]	; (950 <set_system_clock_external_high+0xc8>)
     910:	4a11      	ldr	r2, [pc, #68]	; (958 <set_system_clock_external_high+0xd0>)
     912:	609a      	str	r2, [r3, #8]
     914:	46c0      	nop			; (mov r8, r8)
     916:	4b0e      	ldr	r3, [pc, #56]	; (950 <set_system_clock_external_high+0xc8>)
     918:	881a      	ldrh	r2, [r3, #0]
     91a:	2101      	movs	r1, #1
     91c:	438a      	bics	r2, r1
     91e:	801a      	strh	r2, [r3, #0]
     920:	4b0b      	ldr	r3, [pc, #44]	; (950 <set_system_clock_external_high+0xc8>)
     922:	4a0c      	ldr	r2, [pc, #48]	; (954 <set_system_clock_external_high+0xcc>)
     924:	609a      	str	r2, [r3, #8]
     926:	4b0a      	ldr	r3, [pc, #40]	; (950 <set_system_clock_external_high+0xc8>)
     928:	4a0b      	ldr	r2, [pc, #44]	; (958 <set_system_clock_external_high+0xd0>)
     92a:	609a      	str	r2, [r3, #8]
     92c:	46c0      	nop			; (mov r8, r8)
     92e:	4b08      	ldr	r3, [pc, #32]	; (950 <set_system_clock_external_high+0xc8>)
     930:	881a      	ldrh	r2, [r3, #0]
     932:	2108      	movs	r1, #8
     934:	438a      	bics	r2, r1
     936:	801a      	strh	r2, [r3, #0]
     938:	1cbb      	adds	r3, r7, #2
     93a:	781a      	ldrb	r2, [r3, #0]
     93c:	1cfb      	adds	r3, r7, #3
     93e:	7819      	ldrb	r1, [r3, #0]
     940:	687b      	ldr	r3, [r7, #4]
     942:	0018      	movs	r0, r3
     944:	f7ff fed8 	bl	6f8 <update_clock_freq_global>
     948:	46c0      	nop			; (mov r8, r8)
     94a:	46bd      	mov	sp, r7
     94c:	b002      	add	sp, #8
     94e:	bd80      	pop	{r7, pc}
     950:	40002000 	.word	0x40002000
     954:	00005a5a 	.word	0x00005a5a
     958:	0000a5a5 	.word	0x0000a5a5

0000095c <set_system_clock_internal_low>:
     95c:	b5b0      	push	{r4, r5, r7, lr}
     95e:	b084      	sub	sp, #16
     960:	af00      	add	r7, sp, #0
     962:	6078      	str	r0, [r7, #4]
     964:	0008      	movs	r0, r1
     966:	0011      	movs	r1, r2
     968:	1cfb      	adds	r3, r7, #3
     96a:	1c02      	adds	r2, r0, #0
     96c:	701a      	strb	r2, [r3, #0]
     96e:	1cbb      	adds	r3, r7, #2
     970:	1c0a      	adds	r2, r1, #0
     972:	701a      	strb	r2, [r3, #0]
     974:	250e      	movs	r5, #14
     976:	197c      	adds	r4, r7, r5
     978:	687b      	ldr	r3, [r7, #4]
     97a:	0018      	movs	r0, r3
     97c:	f7ff fe6a 	bl	654 <__calculate_rcl_trim>
     980:	0003      	movs	r3, r0
     982:	8023      	strh	r3, [r4, #0]
     984:	4b33      	ldr	r3, [pc, #204]	; (a54 <set_system_clock_internal_low+0xf8>)
     986:	4a34      	ldr	r2, [pc, #208]	; (a58 <set_system_clock_internal_low+0xfc>)
     988:	609a      	str	r2, [r3, #8]
     98a:	4b32      	ldr	r3, [pc, #200]	; (a54 <set_system_clock_internal_low+0xf8>)
     98c:	4a33      	ldr	r2, [pc, #204]	; (a5c <set_system_clock_internal_low+0x100>)
     98e:	609a      	str	r2, [r3, #8]
     990:	46c0      	nop			; (mov r8, r8)
     992:	4b30      	ldr	r3, [pc, #192]	; (a54 <set_system_clock_internal_low+0xf8>)
     994:	197a      	adds	r2, r7, r5
     996:	8812      	ldrh	r2, [r2, #0]
     998:	0592      	lsls	r2, r2, #22
     99a:	0d92      	lsrs	r2, r2, #22
     99c:	b292      	uxth	r2, r2
     99e:	0592      	lsls	r2, r2, #22
     9a0:	0d90      	lsrs	r0, r2, #22
     9a2:	8a9a      	ldrh	r2, [r3, #20]
     9a4:	0a92      	lsrs	r2, r2, #10
     9a6:	0292      	lsls	r2, r2, #10
     9a8:	1c11      	adds	r1, r2, #0
     9aa:	1c02      	adds	r2, r0, #0
     9ac:	430a      	orrs	r2, r1
     9ae:	829a      	strh	r2, [r3, #20]
     9b0:	4b28      	ldr	r3, [pc, #160]	; (a54 <set_system_clock_internal_low+0xf8>)
     9b2:	8a9a      	ldrh	r2, [r3, #20]
     9b4:	21c0      	movs	r1, #192	; 0xc0
     9b6:	0109      	lsls	r1, r1, #4
     9b8:	430a      	orrs	r2, r1
     9ba:	829a      	strh	r2, [r3, #20]
     9bc:	4b25      	ldr	r3, [pc, #148]	; (a54 <set_system_clock_internal_low+0xf8>)
     9be:	4a26      	ldr	r2, [pc, #152]	; (a58 <set_system_clock_internal_low+0xfc>)
     9c0:	609a      	str	r2, [r3, #8]
     9c2:	4b24      	ldr	r3, [pc, #144]	; (a54 <set_system_clock_internal_low+0xf8>)
     9c4:	4a25      	ldr	r2, [pc, #148]	; (a5c <set_system_clock_internal_low+0x100>)
     9c6:	609a      	str	r2, [r3, #8]
     9c8:	46c0      	nop			; (mov r8, r8)
     9ca:	4b22      	ldr	r3, [pc, #136]	; (a54 <set_system_clock_internal_low+0xf8>)
     9cc:	881a      	ldrh	r2, [r3, #0]
     9ce:	2104      	movs	r1, #4
     9d0:	430a      	orrs	r2, r1
     9d2:	801a      	strh	r2, [r3, #0]
     9d4:	46c0      	nop			; (mov r8, r8)
     9d6:	4b1f      	ldr	r3, [pc, #124]	; (a54 <set_system_clock_internal_low+0xf8>)
     9d8:	695b      	ldr	r3, [r3, #20]
     9da:	04db      	lsls	r3, r3, #19
     9dc:	0fdb      	lsrs	r3, r3, #31
     9de:	b2db      	uxtb	r3, r3
     9e0:	2b01      	cmp	r3, #1
     9e2:	d1f8      	bne.n	9d6 <set_system_clock_internal_low+0x7a>
     9e4:	4b1b      	ldr	r3, [pc, #108]	; (a54 <set_system_clock_internal_low+0xf8>)
     9e6:	881a      	ldrh	r2, [r3, #0]
     9e8:	2130      	movs	r1, #48	; 0x30
     9ea:	438a      	bics	r2, r1
     9ec:	1c11      	adds	r1, r2, #0
     9ee:	2220      	movs	r2, #32
     9f0:	430a      	orrs	r2, r1
     9f2:	801a      	strh	r2, [r3, #0]
     9f4:	4b17      	ldr	r3, [pc, #92]	; (a54 <set_system_clock_internal_low+0xf8>)
     9f6:	4a18      	ldr	r2, [pc, #96]	; (a58 <set_system_clock_internal_low+0xfc>)
     9f8:	609a      	str	r2, [r3, #8]
     9fa:	4b16      	ldr	r3, [pc, #88]	; (a54 <set_system_clock_internal_low+0xf8>)
     9fc:	4a17      	ldr	r2, [pc, #92]	; (a5c <set_system_clock_internal_low+0x100>)
     9fe:	609a      	str	r2, [r3, #8]
     a00:	46c0      	nop			; (mov r8, r8)
     a02:	4b14      	ldr	r3, [pc, #80]	; (a54 <set_system_clock_internal_low+0xf8>)
     a04:	881a      	ldrh	r2, [r3, #0]
     a06:	2108      	movs	r1, #8
     a08:	438a      	bics	r2, r1
     a0a:	801a      	strh	r2, [r3, #0]
     a0c:	4b11      	ldr	r3, [pc, #68]	; (a54 <set_system_clock_internal_low+0xf8>)
     a0e:	4a12      	ldr	r2, [pc, #72]	; (a58 <set_system_clock_internal_low+0xfc>)
     a10:	609a      	str	r2, [r3, #8]
     a12:	4b10      	ldr	r3, [pc, #64]	; (a54 <set_system_clock_internal_low+0xf8>)
     a14:	4a11      	ldr	r2, [pc, #68]	; (a5c <set_system_clock_internal_low+0x100>)
     a16:	609a      	str	r2, [r3, #8]
     a18:	46c0      	nop			; (mov r8, r8)
     a1a:	4b0e      	ldr	r3, [pc, #56]	; (a54 <set_system_clock_internal_low+0xf8>)
     a1c:	881a      	ldrh	r2, [r3, #0]
     a1e:	2101      	movs	r1, #1
     a20:	438a      	bics	r2, r1
     a22:	801a      	strh	r2, [r3, #0]
     a24:	4b0b      	ldr	r3, [pc, #44]	; (a54 <set_system_clock_internal_low+0xf8>)
     a26:	4a0c      	ldr	r2, [pc, #48]	; (a58 <set_system_clock_internal_low+0xfc>)
     a28:	609a      	str	r2, [r3, #8]
     a2a:	4b0a      	ldr	r3, [pc, #40]	; (a54 <set_system_clock_internal_low+0xf8>)
     a2c:	4a0b      	ldr	r2, [pc, #44]	; (a5c <set_system_clock_internal_low+0x100>)
     a2e:	609a      	str	r2, [r3, #8]
     a30:	46c0      	nop			; (mov r8, r8)
     a32:	4b08      	ldr	r3, [pc, #32]	; (a54 <set_system_clock_internal_low+0xf8>)
     a34:	881a      	ldrh	r2, [r3, #0]
     a36:	2102      	movs	r1, #2
     a38:	438a      	bics	r2, r1
     a3a:	801a      	strh	r2, [r3, #0]
     a3c:	1cbb      	adds	r3, r7, #2
     a3e:	781a      	ldrb	r2, [r3, #0]
     a40:	1cfb      	adds	r3, r7, #3
     a42:	7819      	ldrb	r1, [r3, #0]
     a44:	687b      	ldr	r3, [r7, #4]
     a46:	0018      	movs	r0, r3
     a48:	f7ff fe56 	bl	6f8 <update_clock_freq_global>
     a4c:	46c0      	nop			; (mov r8, r8)
     a4e:	46bd      	mov	sp, r7
     a50:	b004      	add	sp, #16
     a52:	bdb0      	pop	{r4, r5, r7, pc}
     a54:	40002000 	.word	0x40002000
     a58:	00005a5a 	.word	0x00005a5a
     a5c:	0000a5a5 	.word	0x0000a5a5

00000a60 <set_system_clock_internal_high>:
     a60:	b5b0      	push	{r4, r5, r7, lr}
     a62:	b084      	sub	sp, #16
     a64:	af00      	add	r7, sp, #0
     a66:	6078      	str	r0, [r7, #4]
     a68:	0008      	movs	r0, r1
     a6a:	0011      	movs	r1, r2
     a6c:	1cfb      	adds	r3, r7, #3
     a6e:	1c02      	adds	r2, r0, #0
     a70:	701a      	strb	r2, [r3, #0]
     a72:	1cbb      	adds	r3, r7, #2
     a74:	1c0a      	adds	r2, r1, #0
     a76:	701a      	strb	r2, [r3, #0]
     a78:	250e      	movs	r5, #14
     a7a:	197c      	adds	r4, r7, r5
     a7c:	687b      	ldr	r3, [r7, #4]
     a7e:	0018      	movs	r0, r3
     a80:	f7ff fcd2 	bl	428 <__calculate_rch_trim>
     a84:	0003      	movs	r3, r0
     a86:	8023      	strh	r3, [r4, #0]
     a88:	4b2f      	ldr	r3, [pc, #188]	; (b48 <set_system_clock_internal_high+0xe8>)
     a8a:	4a30      	ldr	r2, [pc, #192]	; (b4c <set_system_clock_internal_high+0xec>)
     a8c:	609a      	str	r2, [r3, #8]
     a8e:	4b2e      	ldr	r3, [pc, #184]	; (b48 <set_system_clock_internal_high+0xe8>)
     a90:	4a2f      	ldr	r2, [pc, #188]	; (b50 <set_system_clock_internal_high+0xf0>)
     a92:	609a      	str	r2, [r3, #8]
     a94:	46c0      	nop			; (mov r8, r8)
     a96:	4b2c      	ldr	r3, [pc, #176]	; (b48 <set_system_clock_internal_high+0xe8>)
     a98:	197a      	adds	r2, r7, r5
     a9a:	8812      	ldrh	r2, [r2, #0]
     a9c:	0552      	lsls	r2, r2, #21
     a9e:	0d52      	lsrs	r2, r2, #21
     aa0:	b292      	uxth	r2, r2
     aa2:	0552      	lsls	r2, r2, #21
     aa4:	0d50      	lsrs	r0, r2, #21
     aa6:	899a      	ldrh	r2, [r3, #12]
     aa8:	0ad2      	lsrs	r2, r2, #11
     aaa:	02d2      	lsls	r2, r2, #11
     aac:	1c11      	adds	r1, r2, #0
     aae:	1c02      	adds	r2, r0, #0
     ab0:	430a      	orrs	r2, r1
     ab2:	819a      	strh	r2, [r3, #12]
     ab4:	4b24      	ldr	r3, [pc, #144]	; (b48 <set_system_clock_internal_high+0xe8>)
     ab6:	4a25      	ldr	r2, [pc, #148]	; (b4c <set_system_clock_internal_high+0xec>)
     ab8:	609a      	str	r2, [r3, #8]
     aba:	4b23      	ldr	r3, [pc, #140]	; (b48 <set_system_clock_internal_high+0xe8>)
     abc:	4a24      	ldr	r2, [pc, #144]	; (b50 <set_system_clock_internal_high+0xf0>)
     abe:	609a      	str	r2, [r3, #8]
     ac0:	46c0      	nop			; (mov r8, r8)
     ac2:	4b21      	ldr	r3, [pc, #132]	; (b48 <set_system_clock_internal_high+0xe8>)
     ac4:	881a      	ldrh	r2, [r3, #0]
     ac6:	2101      	movs	r1, #1
     ac8:	430a      	orrs	r2, r1
     aca:	801a      	strh	r2, [r3, #0]
     acc:	46c0      	nop			; (mov r8, r8)
     ace:	4b1e      	ldr	r3, [pc, #120]	; (b48 <set_system_clock_internal_high+0xe8>)
     ad0:	68db      	ldr	r3, [r3, #12]
     ad2:	051b      	lsls	r3, r3, #20
     ad4:	0fdb      	lsrs	r3, r3, #31
     ad6:	b2db      	uxtb	r3, r3
     ad8:	2b01      	cmp	r3, #1
     ada:	d1f8      	bne.n	ace <set_system_clock_internal_high+0x6e>
     adc:	4b1a      	ldr	r3, [pc, #104]	; (b48 <set_system_clock_internal_high+0xe8>)
     ade:	881a      	ldrh	r2, [r3, #0]
     ae0:	2130      	movs	r1, #48	; 0x30
     ae2:	438a      	bics	r2, r1
     ae4:	801a      	strh	r2, [r3, #0]
     ae6:	4b18      	ldr	r3, [pc, #96]	; (b48 <set_system_clock_internal_high+0xe8>)
     ae8:	4a18      	ldr	r2, [pc, #96]	; (b4c <set_system_clock_internal_high+0xec>)
     aea:	609a      	str	r2, [r3, #8]
     aec:	4b16      	ldr	r3, [pc, #88]	; (b48 <set_system_clock_internal_high+0xe8>)
     aee:	4a18      	ldr	r2, [pc, #96]	; (b50 <set_system_clock_internal_high+0xf0>)
     af0:	609a      	str	r2, [r3, #8]
     af2:	46c0      	nop			; (mov r8, r8)
     af4:	4b14      	ldr	r3, [pc, #80]	; (b48 <set_system_clock_internal_high+0xe8>)
     af6:	881a      	ldrh	r2, [r3, #0]
     af8:	2108      	movs	r1, #8
     afa:	438a      	bics	r2, r1
     afc:	801a      	strh	r2, [r3, #0]
     afe:	4b12      	ldr	r3, [pc, #72]	; (b48 <set_system_clock_internal_high+0xe8>)
     b00:	4a12      	ldr	r2, [pc, #72]	; (b4c <set_system_clock_internal_high+0xec>)
     b02:	609a      	str	r2, [r3, #8]
     b04:	4b10      	ldr	r3, [pc, #64]	; (b48 <set_system_clock_internal_high+0xe8>)
     b06:	4a12      	ldr	r2, [pc, #72]	; (b50 <set_system_clock_internal_high+0xf0>)
     b08:	609a      	str	r2, [r3, #8]
     b0a:	46c0      	nop			; (mov r8, r8)
     b0c:	4b0e      	ldr	r3, [pc, #56]	; (b48 <set_system_clock_internal_high+0xe8>)
     b0e:	881a      	ldrh	r2, [r3, #0]
     b10:	2104      	movs	r1, #4
     b12:	438a      	bics	r2, r1
     b14:	801a      	strh	r2, [r3, #0]
     b16:	4b0c      	ldr	r3, [pc, #48]	; (b48 <set_system_clock_internal_high+0xe8>)
     b18:	4a0c      	ldr	r2, [pc, #48]	; (b4c <set_system_clock_internal_high+0xec>)
     b1a:	609a      	str	r2, [r3, #8]
     b1c:	4b0a      	ldr	r3, [pc, #40]	; (b48 <set_system_clock_internal_high+0xe8>)
     b1e:	4a0c      	ldr	r2, [pc, #48]	; (b50 <set_system_clock_internal_high+0xf0>)
     b20:	609a      	str	r2, [r3, #8]
     b22:	46c0      	nop			; (mov r8, r8)
     b24:	4b08      	ldr	r3, [pc, #32]	; (b48 <set_system_clock_internal_high+0xe8>)
     b26:	881a      	ldrh	r2, [r3, #0]
     b28:	2102      	movs	r1, #2
     b2a:	438a      	bics	r2, r1
     b2c:	801a      	strh	r2, [r3, #0]
     b2e:	1cbb      	adds	r3, r7, #2
     b30:	781a      	ldrb	r2, [r3, #0]
     b32:	1cfb      	adds	r3, r7, #3
     b34:	7819      	ldrb	r1, [r3, #0]
     b36:	687b      	ldr	r3, [r7, #4]
     b38:	0018      	movs	r0, r3
     b3a:	f7ff fddd 	bl	6f8 <update_clock_freq_global>
     b3e:	46c0      	nop			; (mov r8, r8)
     b40:	46bd      	mov	sp, r7
     b42:	b004      	add	sp, #16
     b44:	bdb0      	pop	{r4, r5, r7, pc}
     b46:	46c0      	nop			; (mov r8, r8)
     b48:	40002000 	.word	0x40002000
     b4c:	00005a5a 	.word	0x00005a5a
     b50:	0000a5a5 	.word	0x0000a5a5

00000b54 <set_system_clock>:
     b54:	b590      	push	{r4, r7, lr}
     b56:	b083      	sub	sp, #12
     b58:	af00      	add	r7, sp, #0
     b5a:	0004      	movs	r4, r0
     b5c:	6039      	str	r1, [r7, #0]
     b5e:	0010      	movs	r0, r2
     b60:	0019      	movs	r1, r3
     b62:	1dfb      	adds	r3, r7, #7
     b64:	1c22      	adds	r2, r4, #0
     b66:	701a      	strb	r2, [r3, #0]
     b68:	1dbb      	adds	r3, r7, #6
     b6a:	1c02      	adds	r2, r0, #0
     b6c:	701a      	strb	r2, [r3, #0]
     b6e:	1d7b      	adds	r3, r7, #5
     b70:	1c0a      	adds	r2, r1, #0
     b72:	701a      	strb	r2, [r3, #0]
     b74:	1dfb      	adds	r3, r7, #7
     b76:	781b      	ldrb	r3, [r3, #0]
     b78:	2b03      	cmp	r3, #3
     b7a:	d023      	beq.n	bc4 <set_system_clock+0x70>
     b7c:	dc2b      	bgt.n	bd6 <set_system_clock+0x82>
     b7e:	2b02      	cmp	r3, #2
     b80:	d00e      	beq.n	ba0 <set_system_clock+0x4c>
     b82:	dc28      	bgt.n	bd6 <set_system_clock+0x82>
     b84:	2b00      	cmp	r3, #0
     b86:	d002      	beq.n	b8e <set_system_clock+0x3a>
     b88:	2b01      	cmp	r3, #1
     b8a:	d012      	beq.n	bb2 <set_system_clock+0x5e>
     b8c:	e023      	b.n	bd6 <set_system_clock+0x82>
     b8e:	1d7b      	adds	r3, r7, #5
     b90:	781a      	ldrb	r2, [r3, #0]
     b92:	1dbb      	adds	r3, r7, #6
     b94:	7819      	ldrb	r1, [r3, #0]
     b96:	683b      	ldr	r3, [r7, #0]
     b98:	0018      	movs	r0, r3
     b9a:	f7ff ff61 	bl	a60 <set_system_clock_internal_high>
     b9e:	e01b      	b.n	bd8 <set_system_clock+0x84>
     ba0:	1d7b      	adds	r3, r7, #5
     ba2:	781a      	ldrb	r2, [r3, #0]
     ba4:	1dbb      	adds	r3, r7, #6
     ba6:	7819      	ldrb	r1, [r3, #0]
     ba8:	683b      	ldr	r3, [r7, #0]
     baa:	0018      	movs	r0, r3
     bac:	f7ff fed6 	bl	95c <set_system_clock_internal_low>
     bb0:	e012      	b.n	bd8 <set_system_clock+0x84>
     bb2:	1d7b      	adds	r3, r7, #5
     bb4:	781a      	ldrb	r2, [r3, #0]
     bb6:	1dbb      	adds	r3, r7, #6
     bb8:	7819      	ldrb	r1, [r3, #0]
     bba:	683b      	ldr	r3, [r7, #0]
     bbc:	0018      	movs	r0, r3
     bbe:	f7ff fe63 	bl	888 <set_system_clock_external_high>
     bc2:	e009      	b.n	bd8 <set_system_clock+0x84>
     bc4:	1d7b      	adds	r3, r7, #5
     bc6:	781a      	ldrb	r2, [r3, #0]
     bc8:	1dbb      	adds	r3, r7, #6
     bca:	7819      	ldrb	r1, [r3, #0]
     bcc:	683b      	ldr	r3, [r7, #0]
     bce:	0018      	movs	r0, r3
     bd0:	f7ff fdee 	bl	7b0 <set_system_clock_external_low>
     bd4:	e000      	b.n	bd8 <set_system_clock+0x84>
     bd6:	46c0      	nop			; (mov r8, r8)
     bd8:	46bd      	mov	sp, r7
     bda:	b003      	add	sp, #12
     bdc:	bd90      	pop	{r4, r7, pc}
	...

00000be0 <__systick_start>:
     be0:	b580      	push	{r7, lr}
     be2:	af00      	add	r7, sp, #0
     be4:	4b02      	ldr	r3, [pc, #8]	; (bf0 <__systick_start+0x10>)
     be6:	2207      	movs	r2, #7
     be8:	601a      	str	r2, [r3, #0]
     bea:	46c0      	nop			; (mov r8, r8)
     bec:	46bd      	mov	sp, r7
     bee:	bd80      	pop	{r7, pc}
     bf0:	e000e010 	.word	0xe000e010

00000bf4 <__systick_stop>:
     bf4:	b580      	push	{r7, lr}
     bf6:	af00      	add	r7, sp, #0
     bf8:	4b04      	ldr	r3, [pc, #16]	; (c0c <__systick_stop+0x18>)
     bfa:	681a      	ldr	r2, [r3, #0]
     bfc:	4b03      	ldr	r3, [pc, #12]	; (c0c <__systick_stop+0x18>)
     bfe:	2107      	movs	r1, #7
     c00:	438a      	bics	r2, r1
     c02:	601a      	str	r2, [r3, #0]
     c04:	46c0      	nop			; (mov r8, r8)
     c06:	46bd      	mov	sp, r7
     c08:	bd80      	pop	{r7, pc}
     c0a:	46c0      	nop			; (mov r8, r8)
     c0c:	e000e010 	.word	0xe000e010

00000c10 <enable_systick>:
     c10:	b580      	push	{r7, lr}
     c12:	b084      	sub	sp, #16
     c14:	af00      	add	r7, sp, #0
     c16:	6078      	str	r0, [r7, #4]
     c18:	687b      	ldr	r3, [r7, #4]
     c1a:	2b00      	cmp	r3, #0
     c1c:	d027      	beq.n	c6e <enable_systick+0x5e>
     c1e:	f7ff fba3 	bl	368 <peripheral_get_enabled>
     c22:	0002      	movs	r2, r0
     c24:	2380      	movs	r3, #128	; 0x80
     c26:	045b      	lsls	r3, r3, #17
     c28:	4313      	orrs	r3, r2
     c2a:	0018      	movs	r0, r3
     c2c:	f7ff fb8e 	bl	34c <peripheral_set_enabled>
     c30:	4b16      	ldr	r3, [pc, #88]	; (c8c <enable_systick+0x7c>)
     c32:	681b      	ldr	r3, [r3, #0]
     c34:	6879      	ldr	r1, [r7, #4]
     c36:	0018      	movs	r0, r3
     c38:	f000 fafe 	bl	1238 <__udivsi3>
     c3c:	0003      	movs	r3, r0
     c3e:	60fb      	str	r3, [r7, #12]
     c40:	68fb      	ldr	r3, [r7, #12]
     c42:	1e5a      	subs	r2, r3, #1
     c44:	2380      	movs	r3, #128	; 0x80
     c46:	041b      	lsls	r3, r3, #16
     c48:	429a      	cmp	r2, r3
     c4a:	d21b      	bcs.n	c84 <enable_systick+0x74>
     c4c:	4b10      	ldr	r3, [pc, #64]	; (c90 <enable_systick+0x80>)
     c4e:	68fa      	ldr	r2, [r7, #12]
     c50:	3a01      	subs	r2, #1
     c52:	605a      	str	r2, [r3, #4]
     c54:	4b0e      	ldr	r3, [pc, #56]	; (c90 <enable_systick+0x80>)
     c56:	2200      	movs	r2, #0
     c58:	609a      	str	r2, [r3, #8]
     c5a:	2301      	movs	r3, #1
     c5c:	425b      	negs	r3, r3
     c5e:	2201      	movs	r2, #1
     c60:	2103      	movs	r1, #3
     c62:	0018      	movs	r0, r3
     c64:	f7ff fb8a 	bl	37c <nvic_configure_interrupt>
     c68:	f7ff ffba 	bl	be0 <__systick_start>
     c6c:	e00b      	b.n	c86 <enable_systick+0x76>
     c6e:	f7ff ffc1 	bl	bf4 <__systick_stop>
     c72:	f7ff fb79 	bl	368 <peripheral_get_enabled>
     c76:	0003      	movs	r3, r0
     c78:	4a06      	ldr	r2, [pc, #24]	; (c94 <enable_systick+0x84>)
     c7a:	4013      	ands	r3, r2
     c7c:	0018      	movs	r0, r3
     c7e:	f7ff fb65 	bl	34c <peripheral_set_enabled>
     c82:	e000      	b.n	c86 <enable_systick+0x76>
     c84:	46c0      	nop			; (mov r8, r8)
     c86:	46bd      	mov	sp, r7
     c88:	b004      	add	sp, #16
     c8a:	bd80      	pop	{r7, pc}
     c8c:	20000000 	.word	0x20000000
     c90:	e000e010 	.word	0xe000e010
     c94:	feffffff 	.word	0xfeffffff

00000c98 <systick_time_since>:
     c98:	b580      	push	{r7, lr}
     c9a:	b084      	sub	sp, #16
     c9c:	af00      	add	r7, sp, #0
     c9e:	6078      	str	r0, [r7, #4]
     ca0:	4b0d      	ldr	r3, [pc, #52]	; (cd8 <systick_time_since+0x40>)
     ca2:	681b      	ldr	r3, [r3, #0]
     ca4:	2203      	movs	r2, #3
     ca6:	4013      	ands	r3, r2
     ca8:	2b03      	cmp	r3, #3
     caa:	d001      	beq.n	cb0 <systick_time_since+0x18>
     cac:	2300      	movs	r3, #0
     cae:	e00e      	b.n	cce <systick_time_since+0x36>
     cb0:	4b0a      	ldr	r3, [pc, #40]	; (cdc <systick_time_since+0x44>)
     cb2:	685b      	ldr	r3, [r3, #4]
     cb4:	60fb      	str	r3, [r7, #12]
     cb6:	68fa      	ldr	r2, [r7, #12]
     cb8:	687b      	ldr	r3, [r7, #4]
     cba:	429a      	cmp	r2, r3
     cbc:	d204      	bcs.n	cc8 <systick_time_since+0x30>
     cbe:	68fa      	ldr	r2, [r7, #12]
     cc0:	687b      	ldr	r3, [r7, #4]
     cc2:	1ad3      	subs	r3, r2, r3
     cc4:	3b01      	subs	r3, #1
     cc6:	e002      	b.n	cce <systick_time_since+0x36>
     cc8:	68fa      	ldr	r2, [r7, #12]
     cca:	687b      	ldr	r3, [r7, #4]
     ccc:	1ad3      	subs	r3, r2, r3
     cce:	0018      	movs	r0, r3
     cd0:	46bd      	mov	sp, r7
     cd2:	b004      	add	sp, #16
     cd4:	bd80      	pop	{r7, pc}
     cd6:	46c0      	nop			; (mov r8, r8)
     cd8:	e000e010 	.word	0xe000e010
     cdc:	20000008 	.word	0x20000008

00000ce0 <systick_current_value>:
     ce0:	b580      	push	{r7, lr}
     ce2:	af00      	add	r7, sp, #0
     ce4:	4b02      	ldr	r3, [pc, #8]	; (cf0 <systick_current_value+0x10>)
     ce6:	685b      	ldr	r3, [r3, #4]
     ce8:	0018      	movs	r0, r3
     cea:	46bd      	mov	sp, r7
     cec:	bd80      	pop	{r7, pc}
     cee:	46c0      	nop			; (mov r8, r8)
     cf0:	20000008 	.word	0x20000008

00000cf4 <systick_counter_start>:
     cf4:	b580      	push	{r7, lr}
     cf6:	b084      	sub	sp, #16
     cf8:	af00      	add	r7, sp, #0
     cfa:	6078      	str	r0, [r7, #4]
     cfc:	687a      	ldr	r2, [r7, #4]
     cfe:	4b0f      	ldr	r3, [pc, #60]	; (d3c <systick_counter_start+0x48>)
     d00:	429a      	cmp	r2, r3
     d02:	d017      	beq.n	d34 <systick_counter_start+0x40>
     d04:	687b      	ldr	r3, [r7, #4]
     d06:	2200      	movs	r2, #0
     d08:	605a      	str	r2, [r3, #4]
     d0a:	687b      	ldr	r3, [r7, #4]
     d0c:	2200      	movs	r2, #0
     d0e:	601a      	str	r2, [r3, #0]
     d10:	4b0a      	ldr	r3, [pc, #40]	; (d3c <systick_counter_start+0x48>)
     d12:	60fb      	str	r3, [r7, #12]
     d14:	f7ff ff6e 	bl	bf4 <__systick_stop>
     d18:	e002      	b.n	d20 <systick_counter_start+0x2c>
     d1a:	68fb      	ldr	r3, [r7, #12]
     d1c:	681b      	ldr	r3, [r3, #0]
     d1e:	60fb      	str	r3, [r7, #12]
     d20:	68fb      	ldr	r3, [r7, #12]
     d22:	681b      	ldr	r3, [r3, #0]
     d24:	2b00      	cmp	r3, #0
     d26:	d1f8      	bne.n	d1a <systick_counter_start+0x26>
     d28:	68fb      	ldr	r3, [r7, #12]
     d2a:	687a      	ldr	r2, [r7, #4]
     d2c:	601a      	str	r2, [r3, #0]
     d2e:	f7ff ff57 	bl	be0 <__systick_start>
     d32:	e000      	b.n	d36 <systick_counter_start+0x42>
     d34:	46c0      	nop			; (mov r8, r8)
     d36:	46bd      	mov	sp, r7
     d38:	b004      	add	sp, #16
     d3a:	bd80      	pop	{r7, pc}
     d3c:	20000008 	.word	0x20000008

00000d40 <systick_counter_elapsed>:
     d40:	b580      	push	{r7, lr}
     d42:	b082      	sub	sp, #8
     d44:	af00      	add	r7, sp, #0
     d46:	6078      	str	r0, [r7, #4]
     d48:	687b      	ldr	r3, [r7, #4]
     d4a:	685b      	ldr	r3, [r3, #4]
     d4c:	0018      	movs	r0, r3
     d4e:	46bd      	mov	sp, r7
     d50:	b002      	add	sp, #8
     d52:	bd80      	pop	{r7, pc}

00000d54 <systick_counter_complete>:
     d54:	b580      	push	{r7, lr}
     d56:	b084      	sub	sp, #16
     d58:	af00      	add	r7, sp, #0
     d5a:	6078      	str	r0, [r7, #4]
     d5c:	687a      	ldr	r2, [r7, #4]
     d5e:	4b10      	ldr	r3, [pc, #64]	; (da0 <systick_counter_complete+0x4c>)
     d60:	429a      	cmp	r2, r3
     d62:	d019      	beq.n	d98 <systick_counter_complete+0x44>
     d64:	4b0e      	ldr	r3, [pc, #56]	; (da0 <systick_counter_complete+0x4c>)
     d66:	60fb      	str	r3, [r7, #12]
     d68:	f7ff ff44 	bl	bf4 <__systick_stop>
     d6c:	e002      	b.n	d74 <systick_counter_complete+0x20>
     d6e:	68fb      	ldr	r3, [r7, #12]
     d70:	681b      	ldr	r3, [r3, #0]
     d72:	60fb      	str	r3, [r7, #12]
     d74:	68fb      	ldr	r3, [r7, #12]
     d76:	681b      	ldr	r3, [r3, #0]
     d78:	687a      	ldr	r2, [r7, #4]
     d7a:	429a      	cmp	r2, r3
     d7c:	d1f7      	bne.n	d6e <systick_counter_complete+0x1a>
     d7e:	687b      	ldr	r3, [r7, #4]
     d80:	681a      	ldr	r2, [r3, #0]
     d82:	68fb      	ldr	r3, [r7, #12]
     d84:	601a      	str	r2, [r3, #0]
     d86:	687b      	ldr	r3, [r7, #4]
     d88:	2200      	movs	r2, #0
     d8a:	601a      	str	r2, [r3, #0]
     d8c:	687b      	ldr	r3, [r7, #4]
     d8e:	2200      	movs	r2, #0
     d90:	605a      	str	r2, [r3, #4]
     d92:	f7ff ff25 	bl	be0 <__systick_start>
     d96:	e000      	b.n	d9a <systick_counter_complete+0x46>
     d98:	46c0      	nop			; (mov r8, r8)
     d9a:	46bd      	mov	sp, r7
     d9c:	b004      	add	sp, #16
     d9e:	bd80      	pop	{r7, pc}
     da0:	20000008 	.word	0x20000008

00000da4 <systick_delay>:
     da4:	b580      	push	{r7, lr}
     da6:	b084      	sub	sp, #16
     da8:	af00      	add	r7, sp, #0
     daa:	6078      	str	r0, [r7, #4]
     dac:	2308      	movs	r3, #8
     dae:	18fb      	adds	r3, r7, r3
     db0:	0018      	movs	r0, r3
     db2:	f7ff ff9f 	bl	cf4 <systick_counter_start>
     db6:	e000      	b.n	dba <systick_delay+0x16>
     db8:	46c0      	nop			; (mov r8, r8)
     dba:	2108      	movs	r1, #8
     dbc:	187b      	adds	r3, r7, r1
     dbe:	685b      	ldr	r3, [r3, #4]
     dc0:	687a      	ldr	r2, [r7, #4]
     dc2:	429a      	cmp	r2, r3
     dc4:	d8f8      	bhi.n	db8 <systick_delay+0x14>
     dc6:	187b      	adds	r3, r7, r1
     dc8:	0018      	movs	r0, r3
     dca:	f7ff ffc3 	bl	d54 <systick_counter_complete>
     dce:	46c0      	nop			; (mov r8, r8)
     dd0:	46bd      	mov	sp, r7
     dd2:	b004      	add	sp, #16
     dd4:	bd80      	pop	{r7, pc}

00000dd6 <systick_counter_delay>:
     dd6:	b580      	push	{r7, lr}
     dd8:	b082      	sub	sp, #8
     dda:	af00      	add	r7, sp, #0
     ddc:	6078      	str	r0, [r7, #4]
     dde:	6039      	str	r1, [r7, #0]
     de0:	687b      	ldr	r3, [r7, #4]
     de2:	0018      	movs	r0, r3
     de4:	f7ff ff86 	bl	cf4 <systick_counter_start>
     de8:	e000      	b.n	dec <systick_counter_delay+0x16>
     dea:	46c0      	nop			; (mov r8, r8)
     dec:	687b      	ldr	r3, [r7, #4]
     dee:	685b      	ldr	r3, [r3, #4]
     df0:	683a      	ldr	r2, [r7, #0]
     df2:	429a      	cmp	r2, r3
     df4:	d8f9      	bhi.n	dea <systick_counter_delay+0x14>
     df6:	687b      	ldr	r3, [r7, #4]
     df8:	0018      	movs	r0, r3
     dfa:	f7ff ffab 	bl	d54 <systick_counter_complete>
     dfe:	46c0      	nop			; (mov r8, r8)
     e00:	46bd      	mov	sp, r7
     e02:	b002      	add	sp, #8
     e04:	bd80      	pop	{r7, pc}
	...

00000e08 <SysTick_Handler>:
     e08:	b580      	push	{r7, lr}
     e0a:	b082      	sub	sp, #8
     e0c:	af00      	add	r7, sp, #0
     e0e:	4b09      	ldr	r3, [pc, #36]	; (e34 <SysTick_Handler+0x2c>)
     e10:	607b      	str	r3, [r7, #4]
     e12:	e007      	b.n	e24 <SysTick_Handler+0x1c>
     e14:	687b      	ldr	r3, [r7, #4]
     e16:	685b      	ldr	r3, [r3, #4]
     e18:	1c5a      	adds	r2, r3, #1
     e1a:	687b      	ldr	r3, [r7, #4]
     e1c:	605a      	str	r2, [r3, #4]
     e1e:	687b      	ldr	r3, [r7, #4]
     e20:	681b      	ldr	r3, [r3, #0]
     e22:	607b      	str	r3, [r7, #4]
     e24:	687b      	ldr	r3, [r7, #4]
     e26:	2b00      	cmp	r3, #0
     e28:	d1f4      	bne.n	e14 <SysTick_Handler+0xc>
     e2a:	46c0      	nop			; (mov r8, r8)
     e2c:	46c0      	nop			; (mov r8, r8)
     e2e:	46bd      	mov	sp, r7
     e30:	b002      	add	sp, #8
     e32:	bd80      	pop	{r7, pc}
     e34:	20000008 	.word	0x20000008

00000e38 <__NVIC_ClearPendingIRQ>:
     e38:	b580      	push	{r7, lr}
     e3a:	b082      	sub	sp, #8
     e3c:	af00      	add	r7, sp, #0
     e3e:	0002      	movs	r2, r0
     e40:	1dfb      	adds	r3, r7, #7
     e42:	701a      	strb	r2, [r3, #0]
     e44:	1dfb      	adds	r3, r7, #7
     e46:	781b      	ldrb	r3, [r3, #0]
     e48:	2b7f      	cmp	r3, #127	; 0x7f
     e4a:	d80a      	bhi.n	e62 <__NVIC_ClearPendingIRQ+0x2a>
     e4c:	1dfb      	adds	r3, r7, #7
     e4e:	781b      	ldrb	r3, [r3, #0]
     e50:	001a      	movs	r2, r3
     e52:	231f      	movs	r3, #31
     e54:	4013      	ands	r3, r2
     e56:	4905      	ldr	r1, [pc, #20]	; (e6c <__NVIC_ClearPendingIRQ+0x34>)
     e58:	2201      	movs	r2, #1
     e5a:	409a      	lsls	r2, r3
     e5c:	23c0      	movs	r3, #192	; 0xc0
     e5e:	005b      	lsls	r3, r3, #1
     e60:	50ca      	str	r2, [r1, r3]
     e62:	46c0      	nop			; (mov r8, r8)
     e64:	46bd      	mov	sp, r7
     e66:	b002      	add	sp, #8
     e68:	bd80      	pop	{r7, pc}
     e6a:	46c0      	nop			; (mov r8, r8)
     e6c:	e000e100 	.word	0xe000e100

00000e70 <gpio_configure>:
     e70:	b580      	push	{r7, lr}
     e72:	b082      	sub	sp, #8
     e74:	af00      	add	r7, sp, #0
     e76:	6078      	str	r0, [r7, #4]
     e78:	003b      	movs	r3, r7
     e7a:	8019      	strh	r1, [r3, #0]
     e7c:	687b      	ldr	r3, [r7, #4]
     e7e:	685b      	ldr	r3, [r3, #4]
     e80:	681b      	ldr	r3, [r3, #0]
     e82:	687a      	ldr	r2, [r7, #4]
     e84:	7b12      	ldrb	r2, [r2, #12]
     e86:	0011      	movs	r1, r2
     e88:	2201      	movs	r2, #1
     e8a:	408a      	lsls	r2, r1
     e8c:	43d2      	mvns	r2, r2
     e8e:	401a      	ands	r2, r3
     e90:	003b      	movs	r3, r7
     e92:	781b      	ldrb	r3, [r3, #0]
     e94:	07db      	lsls	r3, r3, #31
     e96:	0fdb      	lsrs	r3, r3, #31
     e98:	b2db      	uxtb	r3, r3
     e9a:	0019      	movs	r1, r3
     e9c:	687b      	ldr	r3, [r7, #4]
     e9e:	7b1b      	ldrb	r3, [r3, #12]
     ea0:	4099      	lsls	r1, r3
     ea2:	000b      	movs	r3, r1
     ea4:	0019      	movs	r1, r3
     ea6:	687b      	ldr	r3, [r7, #4]
     ea8:	685b      	ldr	r3, [r3, #4]
     eaa:	430a      	orrs	r2, r1
     eac:	601a      	str	r2, [r3, #0]
     eae:	687b      	ldr	r3, [r7, #4]
     eb0:	685b      	ldr	r3, [r3, #4]
     eb2:	68db      	ldr	r3, [r3, #12]
     eb4:	687a      	ldr	r2, [r7, #4]
     eb6:	7b12      	ldrb	r2, [r2, #12]
     eb8:	0011      	movs	r1, r2
     eba:	2201      	movs	r2, #1
     ebc:	408a      	lsls	r2, r1
     ebe:	43d2      	mvns	r2, r2
     ec0:	401a      	ands	r2, r3
     ec2:	003b      	movs	r3, r7
     ec4:	781b      	ldrb	r3, [r3, #0]
     ec6:	079b      	lsls	r3, r3, #30
     ec8:	0fdb      	lsrs	r3, r3, #31
     eca:	b2db      	uxtb	r3, r3
     ecc:	0019      	movs	r1, r3
     ece:	687b      	ldr	r3, [r7, #4]
     ed0:	7b1b      	ldrb	r3, [r3, #12]
     ed2:	4099      	lsls	r1, r3
     ed4:	000b      	movs	r3, r1
     ed6:	0019      	movs	r1, r3
     ed8:	687b      	ldr	r3, [r7, #4]
     eda:	685b      	ldr	r3, [r3, #4]
     edc:	430a      	orrs	r2, r1
     ede:	60da      	str	r2, [r3, #12]
     ee0:	687b      	ldr	r3, [r7, #4]
     ee2:	685b      	ldr	r3, [r3, #4]
     ee4:	69db      	ldr	r3, [r3, #28]
     ee6:	687a      	ldr	r2, [r7, #4]
     ee8:	7b12      	ldrb	r2, [r2, #12]
     eea:	0011      	movs	r1, r2
     eec:	2201      	movs	r2, #1
     eee:	408a      	lsls	r2, r1
     ef0:	43d2      	mvns	r2, r2
     ef2:	401a      	ands	r2, r3
     ef4:	003b      	movs	r3, r7
     ef6:	781b      	ldrb	r3, [r3, #0]
     ef8:	075b      	lsls	r3, r3, #29
     efa:	0fdb      	lsrs	r3, r3, #31
     efc:	b2db      	uxtb	r3, r3
     efe:	0019      	movs	r1, r3
     f00:	687b      	ldr	r3, [r7, #4]
     f02:	7b1b      	ldrb	r3, [r3, #12]
     f04:	4099      	lsls	r1, r3
     f06:	000b      	movs	r3, r1
     f08:	0019      	movs	r1, r3
     f0a:	687b      	ldr	r3, [r7, #4]
     f0c:	685b      	ldr	r3, [r3, #4]
     f0e:	430a      	orrs	r2, r1
     f10:	61da      	str	r2, [r3, #28]
     f12:	687b      	ldr	r3, [r7, #4]
     f14:	685b      	ldr	r3, [r3, #4]
     f16:	6a1b      	ldr	r3, [r3, #32]
     f18:	687a      	ldr	r2, [r7, #4]
     f1a:	7b12      	ldrb	r2, [r2, #12]
     f1c:	0011      	movs	r1, r2
     f1e:	2201      	movs	r2, #1
     f20:	408a      	lsls	r2, r1
     f22:	43d2      	mvns	r2, r2
     f24:	401a      	ands	r2, r3
     f26:	003b      	movs	r3, r7
     f28:	781b      	ldrb	r3, [r3, #0]
     f2a:	071b      	lsls	r3, r3, #28
     f2c:	0fdb      	lsrs	r3, r3, #31
     f2e:	b2db      	uxtb	r3, r3
     f30:	0019      	movs	r1, r3
     f32:	687b      	ldr	r3, [r7, #4]
     f34:	7b1b      	ldrb	r3, [r3, #12]
     f36:	4099      	lsls	r1, r3
     f38:	000b      	movs	r3, r1
     f3a:	0019      	movs	r1, r3
     f3c:	687b      	ldr	r3, [r7, #4]
     f3e:	685b      	ldr	r3, [r3, #4]
     f40:	430a      	orrs	r2, r1
     f42:	621a      	str	r2, [r3, #32]
     f44:	687b      	ldr	r3, [r7, #4]
     f46:	685b      	ldr	r3, [r3, #4]
     f48:	6a5b      	ldr	r3, [r3, #36]	; 0x24
     f4a:	687a      	ldr	r2, [r7, #4]
     f4c:	7b12      	ldrb	r2, [r2, #12]
     f4e:	0011      	movs	r1, r2
     f50:	2201      	movs	r2, #1
     f52:	408a      	lsls	r2, r1
     f54:	43d2      	mvns	r2, r2
     f56:	401a      	ands	r2, r3
     f58:	003b      	movs	r3, r7
     f5a:	781b      	ldrb	r3, [r3, #0]
     f5c:	06db      	lsls	r3, r3, #27
     f5e:	0fdb      	lsrs	r3, r3, #31
     f60:	b2db      	uxtb	r3, r3
     f62:	0019      	movs	r1, r3
     f64:	687b      	ldr	r3, [r7, #4]
     f66:	7b1b      	ldrb	r3, [r3, #12]
     f68:	4099      	lsls	r1, r3
     f6a:	000b      	movs	r3, r1
     f6c:	0019      	movs	r1, r3
     f6e:	687b      	ldr	r3, [r7, #4]
     f70:	685b      	ldr	r3, [r3, #4]
     f72:	430a      	orrs	r2, r1
     f74:	625a      	str	r2, [r3, #36]	; 0x24
     f76:	687b      	ldr	r3, [r7, #4]
     f78:	685b      	ldr	r3, [r3, #4]
     f7a:	6adb      	ldr	r3, [r3, #44]	; 0x2c
     f7c:	687a      	ldr	r2, [r7, #4]
     f7e:	7b12      	ldrb	r2, [r2, #12]
     f80:	0011      	movs	r1, r2
     f82:	2201      	movs	r2, #1
     f84:	408a      	lsls	r2, r1
     f86:	43d2      	mvns	r2, r2
     f88:	401a      	ands	r2, r3
     f8a:	003b      	movs	r3, r7
     f8c:	781b      	ldrb	r3, [r3, #0]
     f8e:	069b      	lsls	r3, r3, #26
     f90:	0fdb      	lsrs	r3, r3, #31
     f92:	b2db      	uxtb	r3, r3
     f94:	0019      	movs	r1, r3
     f96:	687b      	ldr	r3, [r7, #4]
     f98:	7b1b      	ldrb	r3, [r3, #12]
     f9a:	4099      	lsls	r1, r3
     f9c:	000b      	movs	r3, r1
     f9e:	0019      	movs	r1, r3
     fa0:	687b      	ldr	r3, [r7, #4]
     fa2:	685b      	ldr	r3, [r3, #4]
     fa4:	430a      	orrs	r2, r1
     fa6:	62da      	str	r2, [r3, #44]	; 0x2c
     fa8:	003b      	movs	r3, r7
     faa:	785b      	ldrb	r3, [r3, #1]
     fac:	075b      	lsls	r3, r3, #29
     fae:	0f5b      	lsrs	r3, r3, #29
     fb0:	b2da      	uxtb	r2, r3
     fb2:	687b      	ldr	r3, [r7, #4]
     fb4:	681b      	ldr	r3, [r3, #0]
     fb6:	601a      	str	r2, [r3, #0]
     fb8:	687b      	ldr	r3, [r7, #4]
     fba:	200e      	movs	r0, #14
     fbc:	5618      	ldrsb	r0, [r3, r0]
     fbe:	003b      	movs	r3, r7
     fc0:	785b      	ldrb	r3, [r3, #1]
     fc2:	071b      	lsls	r3, r3, #28
     fc4:	0fdb      	lsrs	r3, r3, #31
     fc6:	b2db      	uxtb	r3, r3
     fc8:	001a      	movs	r2, r3
     fca:	2103      	movs	r1, #3
     fcc:	f7ff f9d6 	bl	37c <nvic_configure_interrupt>
     fd0:	46c0      	nop			; (mov r8, r8)
     fd2:	46bd      	mov	sp, r7
     fd4:	b002      	add	sp, #8
     fd6:	bd80      	pop	{r7, pc}

00000fd8 <gpio_digital_read>:
     fd8:	b580      	push	{r7, lr}
     fda:	b082      	sub	sp, #8
     fdc:	af00      	add	r7, sp, #0
     fde:	6078      	str	r0, [r7, #4]
     fe0:	687b      	ldr	r3, [r7, #4]
     fe2:	685b      	ldr	r3, [r3, #4]
     fe4:	685b      	ldr	r3, [r3, #4]
     fe6:	687a      	ldr	r2, [r7, #4]
     fe8:	7b12      	ldrb	r2, [r2, #12]
     fea:	40d3      	lsrs	r3, r2
     fec:	b2db      	uxtb	r3, r3
     fee:	2201      	movs	r2, #1
     ff0:	4013      	ands	r3, r2
     ff2:	b2db      	uxtb	r3, r3
     ff4:	0018      	movs	r0, r3
     ff6:	46bd      	mov	sp, r7
     ff8:	b002      	add	sp, #8
     ffa:	bd80      	pop	{r7, pc}

00000ffc <gpio_digital_write>:
     ffc:	b580      	push	{r7, lr}
     ffe:	b082      	sub	sp, #8
    1000:	af00      	add	r7, sp, #0
    1002:	6078      	str	r0, [r7, #4]
    1004:	000a      	movs	r2, r1
    1006:	1cfb      	adds	r3, r7, #3
    1008:	701a      	strb	r2, [r3, #0]
    100a:	687b      	ldr	r3, [r7, #4]
    100c:	685b      	ldr	r3, [r3, #4]
    100e:	689b      	ldr	r3, [r3, #8]
    1010:	687a      	ldr	r2, [r7, #4]
    1012:	7b12      	ldrb	r2, [r2, #12]
    1014:	0011      	movs	r1, r2
    1016:	2201      	movs	r2, #1
    1018:	408a      	lsls	r2, r1
    101a:	43d2      	mvns	r2, r2
    101c:	401a      	ands	r2, r3
    101e:	1cfb      	adds	r3, r7, #3
    1020:	781b      	ldrb	r3, [r3, #0]
    1022:	6879      	ldr	r1, [r7, #4]
    1024:	7b09      	ldrb	r1, [r1, #12]
    1026:	408b      	lsls	r3, r1
    1028:	0019      	movs	r1, r3
    102a:	687b      	ldr	r3, [r7, #4]
    102c:	685b      	ldr	r3, [r3, #4]
    102e:	430a      	orrs	r2, r1
    1030:	609a      	str	r2, [r3, #8]
    1032:	46c0      	nop			; (mov r8, r8)
    1034:	46bd      	mov	sp, r7
    1036:	b002      	add	sp, #8
    1038:	bd80      	pop	{r7, pc}

0000103a <gpio_clear_interrupt>:
    103a:	b580      	push	{r7, lr}
    103c:	b082      	sub	sp, #8
    103e:	af00      	add	r7, sp, #0
    1040:	6078      	str	r0, [r7, #4]
    1042:	687b      	ldr	r3, [r7, #4]
    1044:	689b      	ldr	r3, [r3, #8]
    1046:	691a      	ldr	r2, [r3, #16]
    1048:	687b      	ldr	r3, [r7, #4]
    104a:	7b1b      	ldrb	r3, [r3, #12]
    104c:	0019      	movs	r1, r3
    104e:	2301      	movs	r3, #1
    1050:	408b      	lsls	r3, r1
    1052:	43db      	mvns	r3, r3
    1054:	0019      	movs	r1, r3
    1056:	687b      	ldr	r3, [r7, #4]
    1058:	689b      	ldr	r3, [r3, #8]
    105a:	400a      	ands	r2, r1
    105c:	611a      	str	r2, [r3, #16]
    105e:	46c0      	nop			; (mov r8, r8)
    1060:	46bd      	mov	sp, r7
    1062:	b002      	add	sp, #8
    1064:	bd80      	pop	{r7, pc}
	...

00001068 <gpio_set_interrupt_handler>:
    1068:	b580      	push	{r7, lr}
    106a:	b084      	sub	sp, #16
    106c:	af00      	add	r7, sp, #0
    106e:	60f8      	str	r0, [r7, #12]
    1070:	2008      	movs	r0, #8
    1072:	183b      	adds	r3, r7, r0
    1074:	7019      	strb	r1, [r3, #0]
    1076:	607a      	str	r2, [r7, #4]
    1078:	0001      	movs	r1, r0
    107a:	187b      	adds	r3, r7, r1
    107c:	781b      	ldrb	r3, [r3, #0]
    107e:	079b      	lsls	r3, r3, #30
    1080:	0fdb      	lsrs	r3, r3, #31
    1082:	b2da      	uxtb	r2, r3
    1084:	68fb      	ldr	r3, [r7, #12]
    1086:	685b      	ldr	r3, [r3, #4]
    1088:	631a      	str	r2, [r3, #48]	; 0x30
    108a:	187b      	adds	r3, r7, r1
    108c:	781b      	ldrb	r3, [r3, #0]
    108e:	075b      	lsls	r3, r3, #29
    1090:	0fdb      	lsrs	r3, r3, #31
    1092:	b2da      	uxtb	r2, r3
    1094:	68fb      	ldr	r3, [r7, #12]
    1096:	685b      	ldr	r3, [r3, #4]
    1098:	635a      	str	r2, [r3, #52]	; 0x34
    109a:	187b      	adds	r3, r7, r1
    109c:	781b      	ldrb	r3, [r3, #0]
    109e:	071b      	lsls	r3, r3, #28
    10a0:	0fdb      	lsrs	r3, r3, #31
    10a2:	b2da      	uxtb	r2, r3
    10a4:	68fb      	ldr	r3, [r7, #12]
    10a6:	685b      	ldr	r3, [r3, #4]
    10a8:	639a      	str	r2, [r3, #56]	; 0x38
    10aa:	187b      	adds	r3, r7, r1
    10ac:	781b      	ldrb	r3, [r3, #0]
    10ae:	06db      	lsls	r3, r3, #27
    10b0:	0fdb      	lsrs	r3, r3, #31
    10b2:	b2da      	uxtb	r2, r3
    10b4:	68fb      	ldr	r3, [r7, #12]
    10b6:	685b      	ldr	r3, [r3, #4]
    10b8:	63da      	str	r2, [r3, #60]	; 0x3c
    10ba:	68fb      	ldr	r3, [r7, #12]
    10bc:	7b5b      	ldrb	r3, [r3, #13]
    10be:	001a      	movs	r2, r3
    10c0:	4b03      	ldr	r3, [pc, #12]	; (10d0 <gpio_set_interrupt_handler+0x68>)
    10c2:	0092      	lsls	r2, r2, #2
    10c4:	6879      	ldr	r1, [r7, #4]
    10c6:	50d1      	str	r1, [r2, r3]
    10c8:	46c0      	nop			; (mov r8, r8)
    10ca:	46bd      	mov	sp, r7
    10cc:	b004      	add	sp, #16
    10ce:	bd80      	pop	{r7, pc}
    10d0:	20000010 	.word	0x20000010

000010d4 <__handle_gpio_interrupt>:
    10d4:	b580      	push	{r7, lr}
    10d6:	b084      	sub	sp, #16
    10d8:	af00      	add	r7, sp, #0
    10da:	6078      	str	r0, [r7, #4]
    10dc:	6039      	str	r1, [r7, #0]
    10de:	687b      	ldr	r3, [r7, #4]
    10e0:	60fb      	str	r3, [r7, #12]
    10e2:	e03e      	b.n	1162 <__handle_gpio_interrupt+0x8e>
    10e4:	4a23      	ldr	r2, [pc, #140]	; (1174 <__handle_gpio_interrupt+0xa0>)
    10e6:	68fb      	ldr	r3, [r7, #12]
    10e8:	011b      	lsls	r3, r3, #4
    10ea:	18d3      	adds	r3, r2, r3
    10ec:	3308      	adds	r3, #8
    10ee:	681b      	ldr	r3, [r3, #0]
    10f0:	681b      	ldr	r3, [r3, #0]
    10f2:	4920      	ldr	r1, [pc, #128]	; (1174 <__handle_gpio_interrupt+0xa0>)
    10f4:	68fa      	ldr	r2, [r7, #12]
    10f6:	0112      	lsls	r2, r2, #4
    10f8:	188a      	adds	r2, r1, r2
    10fa:	320c      	adds	r2, #12
    10fc:	7812      	ldrb	r2, [r2, #0]
    10fe:	0011      	movs	r1, r2
    1100:	2201      	movs	r2, #1
    1102:	408a      	lsls	r2, r1
    1104:	4013      	ands	r3, r2
    1106:	d029      	beq.n	115c <__handle_gpio_interrupt+0x88>
    1108:	4b1b      	ldr	r3, [pc, #108]	; (1178 <__handle_gpio_interrupt+0xa4>)
    110a:	68fa      	ldr	r2, [r7, #12]
    110c:	0092      	lsls	r2, r2, #2
    110e:	58d3      	ldr	r3, [r2, r3]
    1110:	2b00      	cmp	r3, #0
    1112:	d009      	beq.n	1128 <__handle_gpio_interrupt+0x54>
    1114:	4b18      	ldr	r3, [pc, #96]	; (1178 <__handle_gpio_interrupt+0xa4>)
    1116:	68fa      	ldr	r2, [r7, #12]
    1118:	0092      	lsls	r2, r2, #2
    111a:	58d3      	ldr	r3, [r2, r3]
    111c:	68fa      	ldr	r2, [r7, #12]
    111e:	0111      	lsls	r1, r2, #4
    1120:	4a14      	ldr	r2, [pc, #80]	; (1174 <__handle_gpio_interrupt+0xa0>)
    1122:	188a      	adds	r2, r1, r2
    1124:	0010      	movs	r0, r2
    1126:	4798      	blx	r3
    1128:	4a12      	ldr	r2, [pc, #72]	; (1174 <__handle_gpio_interrupt+0xa0>)
    112a:	68fb      	ldr	r3, [r7, #12]
    112c:	011b      	lsls	r3, r3, #4
    112e:	18d3      	adds	r3, r2, r3
    1130:	3308      	adds	r3, #8
    1132:	681b      	ldr	r3, [r3, #0]
    1134:	691a      	ldr	r2, [r3, #16]
    1136:	490f      	ldr	r1, [pc, #60]	; (1174 <__handle_gpio_interrupt+0xa0>)
    1138:	68fb      	ldr	r3, [r7, #12]
    113a:	011b      	lsls	r3, r3, #4
    113c:	18cb      	adds	r3, r1, r3
    113e:	330c      	adds	r3, #12
    1140:	781b      	ldrb	r3, [r3, #0]
    1142:	0019      	movs	r1, r3
    1144:	2301      	movs	r3, #1
    1146:	408b      	lsls	r3, r1
    1148:	43db      	mvns	r3, r3
    114a:	0018      	movs	r0, r3
    114c:	4909      	ldr	r1, [pc, #36]	; (1174 <__handle_gpio_interrupt+0xa0>)
    114e:	68fb      	ldr	r3, [r7, #12]
    1150:	011b      	lsls	r3, r3, #4
    1152:	18cb      	adds	r3, r1, r3
    1154:	3308      	adds	r3, #8
    1156:	681b      	ldr	r3, [r3, #0]
    1158:	4002      	ands	r2, r0
    115a:	611a      	str	r2, [r3, #16]
    115c:	68fb      	ldr	r3, [r7, #12]
    115e:	3301      	adds	r3, #1
    1160:	60fb      	str	r3, [r7, #12]
    1162:	68fa      	ldr	r2, [r7, #12]
    1164:	683b      	ldr	r3, [r7, #0]
    1166:	429a      	cmp	r2, r3
    1168:	d9bc      	bls.n	10e4 <__handle_gpio_interrupt+0x10>
    116a:	46c0      	nop			; (mov r8, r8)
    116c:	46c0      	nop			; (mov r8, r8)
    116e:	46bd      	mov	sp, r7
    1170:	b004      	add	sp, #16
    1172:	bd80      	pop	{r7, pc}
    1174:	00001350 	.word	0x00001350
    1178:	20000010 	.word	0x20000010

0000117c <GpioPort0_Handler>:
    117c:	b580      	push	{r7, lr}
    117e:	af00      	add	r7, sp, #0
    1180:	2102      	movs	r1, #2
    1182:	2000      	movs	r0, #0
    1184:	f7ff ffa6 	bl	10d4 <__handle_gpio_interrupt>
    1188:	2000      	movs	r0, #0
    118a:	f7ff fe55 	bl	e38 <__NVIC_ClearPendingIRQ>
    118e:	46c0      	nop			; (mov r8, r8)
    1190:	46bd      	mov	sp, r7
    1192:	bd80      	pop	{r7, pc}

00001194 <GpioPort1_Handler>:
    1194:	b580      	push	{r7, lr}
    1196:	af00      	add	r7, sp, #0
    1198:	2104      	movs	r1, #4
    119a:	2003      	movs	r0, #3
    119c:	f7ff ff9a 	bl	10d4 <__handle_gpio_interrupt>
    11a0:	2001      	movs	r0, #1
    11a2:	f7ff fe49 	bl	e38 <__NVIC_ClearPendingIRQ>
    11a6:	46c0      	nop			; (mov r8, r8)
    11a8:	46bd      	mov	sp, r7
    11aa:	bd80      	pop	{r7, pc}

000011ac <GpioPort2_Handler>:
    11ac:	b580      	push	{r7, lr}
    11ae:	af00      	add	r7, sp, #0
    11b0:	2109      	movs	r1, #9
    11b2:	2005      	movs	r0, #5
    11b4:	f7ff ff8e 	bl	10d4 <__handle_gpio_interrupt>
    11b8:	2002      	movs	r0, #2
    11ba:	f7ff fe3d 	bl	e38 <__NVIC_ClearPendingIRQ>
    11be:	46c0      	nop			; (mov r8, r8)
    11c0:	46bd      	mov	sp, r7
    11c2:	bd80      	pop	{r7, pc}

000011c4 <GpioPort3_Handler>:
    11c4:	b580      	push	{r7, lr}
    11c6:	af00      	add	r7, sp, #0
    11c8:	210f      	movs	r1, #15
    11ca:	200a      	movs	r0, #10
    11cc:	f7ff ff82 	bl	10d4 <__handle_gpio_interrupt>
    11d0:	2003      	movs	r0, #3
    11d2:	f7ff fe31 	bl	e38 <__NVIC_ClearPendingIRQ>
    11d6:	46c0      	nop			; (mov r8, r8)
    11d8:	46bd      	mov	sp, r7
    11da:	bd80      	pop	{r7, pc}

000011dc <peripheral_enable_gpio>:
    11dc:	b580      	push	{r7, lr}
    11de:	af00      	add	r7, sp, #0
    11e0:	4b11      	ldr	r3, [pc, #68]	; (1228 <peripheral_enable_gpio+0x4c>)
    11e2:	22ff      	movs	r2, #255	; 0xff
    11e4:	601a      	str	r2, [r3, #0]
    11e6:	4b11      	ldr	r3, [pc, #68]	; (122c <peripheral_enable_gpio+0x50>)
    11e8:	22ff      	movs	r2, #255	; 0xff
    11ea:	601a      	str	r2, [r3, #0]
    11ec:	4b10      	ldr	r3, [pc, #64]	; (1230 <peripheral_enable_gpio+0x54>)
    11ee:	22ff      	movs	r2, #255	; 0xff
    11f0:	601a      	str	r2, [r3, #0]
    11f2:	4b10      	ldr	r3, [pc, #64]	; (1234 <peripheral_enable_gpio+0x58>)
    11f4:	22ff      	movs	r2, #255	; 0xff
    11f6:	601a      	str	r2, [r3, #0]
    11f8:	4b0b      	ldr	r3, [pc, #44]	; (1228 <peripheral_enable_gpio+0x4c>)
    11fa:	2200      	movs	r2, #0
    11fc:	62da      	str	r2, [r3, #44]	; 0x2c
    11fe:	4b0b      	ldr	r3, [pc, #44]	; (122c <peripheral_enable_gpio+0x50>)
    1200:	2200      	movs	r2, #0
    1202:	62da      	str	r2, [r3, #44]	; 0x2c
    1204:	4b0a      	ldr	r3, [pc, #40]	; (1230 <peripheral_enable_gpio+0x54>)
    1206:	2200      	movs	r2, #0
    1208:	62da      	str	r2, [r3, #44]	; 0x2c
    120a:	4b0a      	ldr	r3, [pc, #40]	; (1234 <peripheral_enable_gpio+0x58>)
    120c:	2200      	movs	r2, #0
    120e:	62da      	str	r2, [r3, #44]	; 0x2c
    1210:	f7ff f8aa 	bl	368 <peripheral_get_enabled>
    1214:	0002      	movs	r2, r0
    1216:	2380      	movs	r3, #128	; 0x80
    1218:	055b      	lsls	r3, r3, #21
    121a:	4313      	orrs	r3, r2
    121c:	0018      	movs	r0, r3
    121e:	f7ff f895 	bl	34c <peripheral_set_enabled>
    1222:	46c0      	nop			; (mov r8, r8)
    1224:	46bd      	mov	sp, r7
    1226:	bd80      	pop	{r7, pc}
    1228:	40020d00 	.word	0x40020d00
    122c:	40020d40 	.word	0x40020d40
    1230:	40020d80 	.word	0x40020d80
    1234:	40020dc0 	.word	0x40020dc0

00001238 <__udivsi3>:
    1238:	2200      	movs	r2, #0
    123a:	0843      	lsrs	r3, r0, #1
    123c:	428b      	cmp	r3, r1
    123e:	d374      	bcc.n	132a <__udivsi3+0xf2>
    1240:	0903      	lsrs	r3, r0, #4
    1242:	428b      	cmp	r3, r1
    1244:	d35f      	bcc.n	1306 <__udivsi3+0xce>
    1246:	0a03      	lsrs	r3, r0, #8
    1248:	428b      	cmp	r3, r1
    124a:	d344      	bcc.n	12d6 <__udivsi3+0x9e>
    124c:	0b03      	lsrs	r3, r0, #12
    124e:	428b      	cmp	r3, r1
    1250:	d328      	bcc.n	12a4 <__udivsi3+0x6c>
    1252:	0c03      	lsrs	r3, r0, #16
    1254:	428b      	cmp	r3, r1
    1256:	d30d      	bcc.n	1274 <__udivsi3+0x3c>
    1258:	22ff      	movs	r2, #255	; 0xff
    125a:	0209      	lsls	r1, r1, #8
    125c:	ba12      	rev	r2, r2
    125e:	0c03      	lsrs	r3, r0, #16
    1260:	428b      	cmp	r3, r1
    1262:	d302      	bcc.n	126a <__udivsi3+0x32>
    1264:	1212      	asrs	r2, r2, #8
    1266:	0209      	lsls	r1, r1, #8
    1268:	d065      	beq.n	1336 <__udivsi3+0xfe>
    126a:	0b03      	lsrs	r3, r0, #12
    126c:	428b      	cmp	r3, r1
    126e:	d319      	bcc.n	12a4 <__udivsi3+0x6c>
    1270:	e000      	b.n	1274 <__udivsi3+0x3c>
    1272:	0a09      	lsrs	r1, r1, #8
    1274:	0bc3      	lsrs	r3, r0, #15
    1276:	428b      	cmp	r3, r1
    1278:	d301      	bcc.n	127e <__udivsi3+0x46>
    127a:	03cb      	lsls	r3, r1, #15
    127c:	1ac0      	subs	r0, r0, r3
    127e:	4152      	adcs	r2, r2
    1280:	0b83      	lsrs	r3, r0, #14
    1282:	428b      	cmp	r3, r1
    1284:	d301      	bcc.n	128a <__udivsi3+0x52>
    1286:	038b      	lsls	r3, r1, #14
    1288:	1ac0      	subs	r0, r0, r3
    128a:	4152      	adcs	r2, r2
    128c:	0b43      	lsrs	r3, r0, #13
    128e:	428b      	cmp	r3, r1
    1290:	d301      	bcc.n	1296 <__udivsi3+0x5e>
    1292:	034b      	lsls	r3, r1, #13
    1294:	1ac0      	subs	r0, r0, r3
    1296:	4152      	adcs	r2, r2
    1298:	0b03      	lsrs	r3, r0, #12
    129a:	428b      	cmp	r3, r1
    129c:	d301      	bcc.n	12a2 <__udivsi3+0x6a>
    129e:	030b      	lsls	r3, r1, #12
    12a0:	1ac0      	subs	r0, r0, r3
    12a2:	4152      	adcs	r2, r2
    12a4:	0ac3      	lsrs	r3, r0, #11
    12a6:	428b      	cmp	r3, r1
    12a8:	d301      	bcc.n	12ae <__udivsi3+0x76>
    12aa:	02cb      	lsls	r3, r1, #11
    12ac:	1ac0      	subs	r0, r0, r3
    12ae:	4152      	adcs	r2, r2
    12b0:	0a83      	lsrs	r3, r0, #10
    12b2:	428b      	cmp	r3, r1
    12b4:	d301      	bcc.n	12ba <__udivsi3+0x82>
    12b6:	028b      	lsls	r3, r1, #10
    12b8:	1ac0      	subs	r0, r0, r3
    12ba:	4152      	adcs	r2, r2
    12bc:	0a43      	lsrs	r3, r0, #9
    12be:	428b      	cmp	r3, r1
    12c0:	d301      	bcc.n	12c6 <__udivsi3+0x8e>
    12c2:	024b      	lsls	r3, r1, #9
    12c4:	1ac0      	subs	r0, r0, r3
    12c6:	4152      	adcs	r2, r2
    12c8:	0a03      	lsrs	r3, r0, #8
    12ca:	428b      	cmp	r3, r1
    12cc:	d301      	bcc.n	12d2 <__udivsi3+0x9a>
    12ce:	020b      	lsls	r3, r1, #8
    12d0:	1ac0      	subs	r0, r0, r3
    12d2:	4152      	adcs	r2, r2
    12d4:	d2cd      	bcs.n	1272 <__udivsi3+0x3a>
    12d6:	09c3      	lsrs	r3, r0, #7
    12d8:	428b      	cmp	r3, r1
    12da:	d301      	bcc.n	12e0 <__udivsi3+0xa8>
    12dc:	01cb      	lsls	r3, r1, #7
    12de:	1ac0      	subs	r0, r0, r3
    12e0:	4152      	adcs	r2, r2
    12e2:	0983      	lsrs	r3, r0, #6
    12e4:	428b      	cmp	r3, r1
    12e6:	d301      	bcc.n	12ec <__udivsi3+0xb4>
    12e8:	018b      	lsls	r3, r1, #6
    12ea:	1ac0      	subs	r0, r0, r3
    12ec:	4152      	adcs	r2, r2
    12ee:	0943      	lsrs	r3, r0, #5
    12f0:	428b      	cmp	r3, r1
    12f2:	d301      	bcc.n	12f8 <__udivsi3+0xc0>
    12f4:	014b      	lsls	r3, r1, #5
    12f6:	1ac0      	subs	r0, r0, r3
    12f8:	4152      	adcs	r2, r2
    12fa:	0903      	lsrs	r3, r0, #4
    12fc:	428b      	cmp	r3, r1
    12fe:	d301      	bcc.n	1304 <__udivsi3+0xcc>
    1300:	010b      	lsls	r3, r1, #4
    1302:	1ac0      	subs	r0, r0, r3
    1304:	4152      	adcs	r2, r2
    1306:	08c3      	lsrs	r3, r0, #3
    1308:	428b      	cmp	r3, r1
    130a:	d301      	bcc.n	1310 <__udivsi3+0xd8>
    130c:	00cb      	lsls	r3, r1, #3
    130e:	1ac0      	subs	r0, r0, r3
    1310:	4152      	adcs	r2, r2
    1312:	0883      	lsrs	r3, r0, #2
    1314:	428b      	cmp	r3, r1
    1316:	d301      	bcc.n	131c <__udivsi3+0xe4>
    1318:	008b      	lsls	r3, r1, #2
    131a:	1ac0      	subs	r0, r0, r3
    131c:	4152      	adcs	r2, r2
    131e:	0843      	lsrs	r3, r0, #1
    1320:	428b      	cmp	r3, r1
    1322:	d301      	bcc.n	1328 <__udivsi3+0xf0>
    1324:	004b      	lsls	r3, r1, #1
    1326:	1ac0      	subs	r0, r0, r3
    1328:	4152      	adcs	r2, r2
    132a:	1a41      	subs	r1, r0, r1
    132c:	d200      	bcs.n	1330 <__udivsi3+0xf8>
    132e:	4601      	mov	r1, r0
    1330:	4152      	adcs	r2, r2
    1332:	4610      	mov	r0, r2
    1334:	4770      	bx	lr
    1336:	e7ff      	b.n	1338 <__udivsi3+0x100>
    1338:	b501      	push	{r0, lr}
    133a:	2000      	movs	r0, #0
    133c:	f000 f806 	bl	134c <__aeabi_idiv0>
    1340:	bd02      	pop	{r1, pc}
    1342:	46c0      	nop			; (mov r8, r8)

00001344 <__aeabi_uidivmod>:
    1344:	2900      	cmp	r1, #0
    1346:	d0f7      	beq.n	1338 <__udivsi3+0x100>
    1348:	e776      	b.n	1238 <__udivsi3>
    134a:	4770      	bx	lr

0000134c <__aeabi_idiv0>:
    134c:	4770      	bx	lr
    134e:	46c0      	nop			; (mov r8, r8)

00001350 <port_descriptors>:
    1350:	0c04 4002 0d00 4002 0e00 4002 0001 0000     ...@...@...@....
    1360:	0c08 4002 0d00 4002 0e00 4002 0102 0000     ...@...@...@....
    1370:	0c0c 4002 0d00 4002 0e00 4002 0203 0000     ...@...@...@....
    1380:	0c50 4002 0d40 4002 0e40 4002 0304 0001     P..@@..@@..@....
    1390:	0c54 4002 0d40 4002 0e40 4002 0405 0001     T..@@..@@..@....
    13a0:	0c8c 4002 0d80 4002 0e80 4002 0503 0002     ...@...@...@....
    13b0:	0c90 4002 0d80 4002 0e80 4002 0604 0002     ...@...@...@....
    13c0:	0c94 4002 0d80 4002 0e80 4002 0705 0000     ...@...@...@....
    13d0:	0c98 4002 0d80 4002 0e80 4002 0806 0002     ...@...@...@....
    13e0:	0c9c 4002 0d80 4002 0e80 4002 0907 0002     ...@...@...@....
    13f0:	0cc4 4002 0dc0 4002 0ec0 4002 0a01 0003     ...@...@...@....
    1400:	0cc8 4002 0dc0 4002 0ec0 4002 0b02 0003     ...@...@...@....
    1410:	0ccc 4002 0dc0 4002 0ec0 4002 0c03 0003     ...@...@...@....
    1420:	0cd0 4002 0dc0 4002 0ec0 4002 0d04 0003     ...@...@...@....
    1430:	0cd4 4002 0dc0 4002 0ec0 4002 0e05 0003     ...@...@...@....
    1440:	0cd8 4002 0dc0 4002 0ec0 4002 0f06 0003     ...@...@...@....

00001450 <gpio_digital_output>:
    1450:	0008 0000                                   ....

00001454 <gpio_digital_input>:
    1454:	0001                                        ..
