
.\blink.elf:     file format elf32-littlearm


Disassembly of section .text:

00000000 <vector_table>:
   0:	00 10 00 20 75 04 00 00 09 05 00 00 09 05 00 00     ... u...........
	...
  2c:	09 05 00 00 00 00 00 00 00 00 00 00 09 05 00 00     ................
  3c:	f1 09 00 00 11 01 00 00 21 01 00 00 31 01 00 00     ........!...1...
  4c:	41 01 00 00 51 01 00 00 61 01 00 00 71 01 00 00     A...Q...a...q...
  5c:	81 01 00 00 91 01 00 00 a1 01 00 00 b1 01 00 00     ................
  6c:	c1 01 00 00 d1 01 00 00 e1 01 00 00 f1 01 00 00     ................
  7c:	01 02 00 00 11 02 00 00 21 02 00 00 31 02 00 00     ........!...1...
  8c:	41 02 00 00 51 02 00 00 61 02 00 00 71 02 00 00     A...Q...a...q...
  9c:	81 02 00 00 91 02 00 00 a1 02 00 00 b1 02 00 00     ................
  ac:	c1 02 00 00 d1 02 00 00 e1 02 00 00 f1 02 00 00     ................
  bc:	01 03 00 00                                         ....

000000c0 <handle_timer_fired>:
  c0:	b580      	push	{r7, lr}
  c2:	b082      	sub	sp, #8
  c4:	af00      	add	r7, sp, #0
  c6:	6078      	str	r0, [r7, #4]
  c8:	4b0e      	ldr	r3, [pc, #56]	; (104 <handle_timer_fired+0x44>)
  ca:	681b      	ldr	r3, [r3, #0]
  cc:	3b01      	subs	r3, #1
  ce:	1e5a      	subs	r2, r3, #1
  d0:	4193      	sbcs	r3, r2
  d2:	b2db      	uxtb	r3, r3
  d4:	001a      	movs	r2, r3
  d6:	4b0b      	ldr	r3, [pc, #44]	; (104 <handle_timer_fired+0x44>)
  d8:	601a      	str	r2, [r3, #0]
  da:	4b0a      	ldr	r3, [pc, #40]	; (104 <handle_timer_fired+0x44>)
  dc:	681b      	ldr	r3, [r3, #0]
  de:	b2da      	uxtb	r2, r3
  e0:	4b09      	ldr	r3, [pc, #36]	; (108 <handle_timer_fired+0x48>)
  e2:	0011      	movs	r1, r2
  e4:	0018      	movs	r0, r3
  e6:	f000 fd61 	bl	bac <gpio_digital_write>
  ea:	687b      	ldr	r3, [r7, #4]
  ec:	b25b      	sxtb	r3, r3
  ee:	0018      	movs	r0, r3
  f0:	f000 fb12 	bl	718 <nvic_clear_interrupt>
  f4:	4b05      	ldr	r3, [pc, #20]	; (10c <handle_timer_fired+0x4c>)
  f6:	2200      	movs	r2, #0
  f8:	615a      	str	r2, [r3, #20]
  fa:	46c0      	nop			; (mov r8, r8)
  fc:	46bd      	mov	sp, r7
  fe:	b002      	add	sp, #8
 100:	bd80      	pop	{r7, pc}
 102:	46c0      	nop			; (mov r8, r8)
 104:	20000000 	.word	0x20000000
 108:	00000eb0 	.word	0x00000eb0
 10c:	40000c00 	.word	0x40000c00

00000110 <IRQ00_Handler>:
 110:	b580      	push	{r7, lr}
 112:	af00      	add	r7, sp, #0
 114:	2000      	movs	r0, #0
 116:	f7ff ffd3 	bl	c0 <handle_timer_fired>
 11a:	46c0      	nop			; (mov r8, r8)
 11c:	46bd      	mov	sp, r7
 11e:	bd80      	pop	{r7, pc}

00000120 <IRQ01_Handler>:
 120:	b580      	push	{r7, lr}
 122:	af00      	add	r7, sp, #0
 124:	2001      	movs	r0, #1
 126:	f7ff ffcb 	bl	c0 <handle_timer_fired>
 12a:	46c0      	nop			; (mov r8, r8)
 12c:	46bd      	mov	sp, r7
 12e:	bd80      	pop	{r7, pc}

00000130 <IRQ02_Handler>:
 130:	b580      	push	{r7, lr}
 132:	af00      	add	r7, sp, #0
 134:	2002      	movs	r0, #2
 136:	f7ff ffc3 	bl	c0 <handle_timer_fired>
 13a:	46c0      	nop			; (mov r8, r8)
 13c:	46bd      	mov	sp, r7
 13e:	bd80      	pop	{r7, pc}

00000140 <IRQ03_Handler>:
 140:	b580      	push	{r7, lr}
 142:	af00      	add	r7, sp, #0
 144:	2003      	movs	r0, #3
 146:	f7ff ffbb 	bl	c0 <handle_timer_fired>
 14a:	46c0      	nop			; (mov r8, r8)
 14c:	46bd      	mov	sp, r7
 14e:	bd80      	pop	{r7, pc}

00000150 <IRQ04_Handler>:
 150:	b580      	push	{r7, lr}
 152:	af00      	add	r7, sp, #0
 154:	2004      	movs	r0, #4
 156:	f7ff ffb3 	bl	c0 <handle_timer_fired>
 15a:	46c0      	nop			; (mov r8, r8)
 15c:	46bd      	mov	sp, r7
 15e:	bd80      	pop	{r7, pc}

00000160 <IRQ05_Handler>:
 160:	b580      	push	{r7, lr}
 162:	af00      	add	r7, sp, #0
 164:	2005      	movs	r0, #5
 166:	f7ff ffab 	bl	c0 <handle_timer_fired>
 16a:	46c0      	nop			; (mov r8, r8)
 16c:	46bd      	mov	sp, r7
 16e:	bd80      	pop	{r7, pc}

00000170 <IRQ06_Handler>:
 170:	b580      	push	{r7, lr}
 172:	af00      	add	r7, sp, #0
 174:	2006      	movs	r0, #6
 176:	f7ff ffa3 	bl	c0 <handle_timer_fired>
 17a:	46c0      	nop			; (mov r8, r8)
 17c:	46bd      	mov	sp, r7
 17e:	bd80      	pop	{r7, pc}

00000180 <IRQ07_Handler>:
 180:	b580      	push	{r7, lr}
 182:	af00      	add	r7, sp, #0
 184:	2007      	movs	r0, #7
 186:	f7ff ff9b 	bl	c0 <handle_timer_fired>
 18a:	46c0      	nop			; (mov r8, r8)
 18c:	46bd      	mov	sp, r7
 18e:	bd80      	pop	{r7, pc}

00000190 <IRQ08_Handler>:
 190:	b580      	push	{r7, lr}
 192:	af00      	add	r7, sp, #0
 194:	2008      	movs	r0, #8
 196:	f7ff ff93 	bl	c0 <handle_timer_fired>
 19a:	46c0      	nop			; (mov r8, r8)
 19c:	46bd      	mov	sp, r7
 19e:	bd80      	pop	{r7, pc}

000001a0 <IRQ09_Handler>:
 1a0:	b580      	push	{r7, lr}
 1a2:	af00      	add	r7, sp, #0
 1a4:	2009      	movs	r0, #9
 1a6:	f7ff ff8b 	bl	c0 <handle_timer_fired>
 1aa:	46c0      	nop			; (mov r8, r8)
 1ac:	46bd      	mov	sp, r7
 1ae:	bd80      	pop	{r7, pc}

000001b0 <IRQ10_Handler>:
 1b0:	b580      	push	{r7, lr}
 1b2:	af00      	add	r7, sp, #0
 1b4:	200a      	movs	r0, #10
 1b6:	f7ff ff83 	bl	c0 <handle_timer_fired>
 1ba:	46c0      	nop			; (mov r8, r8)
 1bc:	46bd      	mov	sp, r7
 1be:	bd80      	pop	{r7, pc}

000001c0 <IRQ11_Handler>:
 1c0:	b580      	push	{r7, lr}
 1c2:	af00      	add	r7, sp, #0
 1c4:	200b      	movs	r0, #11
 1c6:	f7ff ff7b 	bl	c0 <handle_timer_fired>
 1ca:	46c0      	nop			; (mov r8, r8)
 1cc:	46bd      	mov	sp, r7
 1ce:	bd80      	pop	{r7, pc}

000001d0 <IRQ12_Handler>:
 1d0:	b580      	push	{r7, lr}
 1d2:	af00      	add	r7, sp, #0
 1d4:	200c      	movs	r0, #12
 1d6:	f7ff ff73 	bl	c0 <handle_timer_fired>
 1da:	46c0      	nop			; (mov r8, r8)
 1dc:	46bd      	mov	sp, r7
 1de:	bd80      	pop	{r7, pc}

000001e0 <IRQ13_Handler>:
 1e0:	b580      	push	{r7, lr}
 1e2:	af00      	add	r7, sp, #0
 1e4:	200d      	movs	r0, #13
 1e6:	f7ff ff6b 	bl	c0 <handle_timer_fired>
 1ea:	46c0      	nop			; (mov r8, r8)
 1ec:	46bd      	mov	sp, r7
 1ee:	bd80      	pop	{r7, pc}

000001f0 <IRQ14_Handler>:
 1f0:	b580      	push	{r7, lr}
 1f2:	af00      	add	r7, sp, #0
 1f4:	200e      	movs	r0, #14
 1f6:	f7ff ff63 	bl	c0 <handle_timer_fired>
 1fa:	46c0      	nop			; (mov r8, r8)
 1fc:	46bd      	mov	sp, r7
 1fe:	bd80      	pop	{r7, pc}

00000200 <IRQ15_Handler>:
 200:	b580      	push	{r7, lr}
 202:	af00      	add	r7, sp, #0
 204:	200f      	movs	r0, #15
 206:	f7ff ff5b 	bl	c0 <handle_timer_fired>
 20a:	46c0      	nop			; (mov r8, r8)
 20c:	46bd      	mov	sp, r7
 20e:	bd80      	pop	{r7, pc}

00000210 <IRQ16_Handler>:
 210:	b580      	push	{r7, lr}
 212:	af00      	add	r7, sp, #0
 214:	2010      	movs	r0, #16
 216:	f7ff ff53 	bl	c0 <handle_timer_fired>
 21a:	46c0      	nop			; (mov r8, r8)
 21c:	46bd      	mov	sp, r7
 21e:	bd80      	pop	{r7, pc}

00000220 <IRQ17_Handler>:
 220:	b580      	push	{r7, lr}
 222:	af00      	add	r7, sp, #0
 224:	2011      	movs	r0, #17
 226:	f7ff ff4b 	bl	c0 <handle_timer_fired>
 22a:	46c0      	nop			; (mov r8, r8)
 22c:	46bd      	mov	sp, r7
 22e:	bd80      	pop	{r7, pc}

00000230 <IRQ18_Handler>:
 230:	b580      	push	{r7, lr}
 232:	af00      	add	r7, sp, #0
 234:	2012      	movs	r0, #18
 236:	f7ff ff43 	bl	c0 <handle_timer_fired>
 23a:	46c0      	nop			; (mov r8, r8)
 23c:	46bd      	mov	sp, r7
 23e:	bd80      	pop	{r7, pc}

00000240 <IRQ19_Handler>:
 240:	b580      	push	{r7, lr}
 242:	af00      	add	r7, sp, #0
 244:	2013      	movs	r0, #19
 246:	f7ff ff3b 	bl	c0 <handle_timer_fired>
 24a:	46c0      	nop			; (mov r8, r8)
 24c:	46bd      	mov	sp, r7
 24e:	bd80      	pop	{r7, pc}

00000250 <IRQ20_Handler>:
 250:	b580      	push	{r7, lr}
 252:	af00      	add	r7, sp, #0
 254:	2014      	movs	r0, #20
 256:	f7ff ff33 	bl	c0 <handle_timer_fired>
 25a:	46c0      	nop			; (mov r8, r8)
 25c:	46bd      	mov	sp, r7
 25e:	bd80      	pop	{r7, pc}

00000260 <IRQ21_Handler>:
 260:	b580      	push	{r7, lr}
 262:	af00      	add	r7, sp, #0
 264:	2015      	movs	r0, #21
 266:	f7ff ff2b 	bl	c0 <handle_timer_fired>
 26a:	46c0      	nop			; (mov r8, r8)
 26c:	46bd      	mov	sp, r7
 26e:	bd80      	pop	{r7, pc}

00000270 <IRQ22_Handler>:
 270:	b580      	push	{r7, lr}
 272:	af00      	add	r7, sp, #0
 274:	2016      	movs	r0, #22
 276:	f7ff ff23 	bl	c0 <handle_timer_fired>
 27a:	46c0      	nop			; (mov r8, r8)
 27c:	46bd      	mov	sp, r7
 27e:	bd80      	pop	{r7, pc}

00000280 <IRQ23_Handler>:
 280:	b580      	push	{r7, lr}
 282:	af00      	add	r7, sp, #0
 284:	2017      	movs	r0, #23
 286:	f7ff ff1b 	bl	c0 <handle_timer_fired>
 28a:	46c0      	nop			; (mov r8, r8)
 28c:	46bd      	mov	sp, r7
 28e:	bd80      	pop	{r7, pc}

00000290 <IRQ24_Handler>:
 290:	b580      	push	{r7, lr}
 292:	af00      	add	r7, sp, #0
 294:	2018      	movs	r0, #24
 296:	f7ff ff13 	bl	c0 <handle_timer_fired>
 29a:	46c0      	nop			; (mov r8, r8)
 29c:	46bd      	mov	sp, r7
 29e:	bd80      	pop	{r7, pc}

000002a0 <IRQ25_Handler>:
 2a0:	b580      	push	{r7, lr}
 2a2:	af00      	add	r7, sp, #0
 2a4:	2019      	movs	r0, #25
 2a6:	f7ff ff0b 	bl	c0 <handle_timer_fired>
 2aa:	46c0      	nop			; (mov r8, r8)
 2ac:	46bd      	mov	sp, r7
 2ae:	bd80      	pop	{r7, pc}

000002b0 <IRQ26_Handler>:
 2b0:	b580      	push	{r7, lr}
 2b2:	af00      	add	r7, sp, #0
 2b4:	201a      	movs	r0, #26
 2b6:	f7ff ff03 	bl	c0 <handle_timer_fired>
 2ba:	46c0      	nop			; (mov r8, r8)
 2bc:	46bd      	mov	sp, r7
 2be:	bd80      	pop	{r7, pc}

000002c0 <IRQ27_Handler>:
 2c0:	b580      	push	{r7, lr}
 2c2:	af00      	add	r7, sp, #0
 2c4:	201b      	movs	r0, #27
 2c6:	f7ff fefb 	bl	c0 <handle_timer_fired>
 2ca:	46c0      	nop			; (mov r8, r8)
 2cc:	46bd      	mov	sp, r7
 2ce:	bd80      	pop	{r7, pc}

000002d0 <IRQ28_Handler>:
 2d0:	b580      	push	{r7, lr}
 2d2:	af00      	add	r7, sp, #0
 2d4:	201c      	movs	r0, #28
 2d6:	f7ff fef3 	bl	c0 <handle_timer_fired>
 2da:	46c0      	nop			; (mov r8, r8)
 2dc:	46bd      	mov	sp, r7
 2de:	bd80      	pop	{r7, pc}

000002e0 <IRQ29_Handler>:
 2e0:	b580      	push	{r7, lr}
 2e2:	af00      	add	r7, sp, #0
 2e4:	201d      	movs	r0, #29
 2e6:	f7ff feeb 	bl	c0 <handle_timer_fired>
 2ea:	46c0      	nop			; (mov r8, r8)
 2ec:	46bd      	mov	sp, r7
 2ee:	bd80      	pop	{r7, pc}

000002f0 <IRQ30_Handler>:
 2f0:	b580      	push	{r7, lr}
 2f2:	af00      	add	r7, sp, #0
 2f4:	201e      	movs	r0, #30
 2f6:	f7ff fee3 	bl	c0 <handle_timer_fired>
 2fa:	46c0      	nop			; (mov r8, r8)
 2fc:	46bd      	mov	sp, r7
 2fe:	bd80      	pop	{r7, pc}

00000300 <IRQ31_Handler>:
 300:	b580      	push	{r7, lr}
 302:	af00      	add	r7, sp, #0
 304:	201f      	movs	r0, #31
 306:	f7ff fedb 	bl	c0 <handle_timer_fired>
 30a:	46c0      	nop			; (mov r8, r8)
 30c:	46bd      	mov	sp, r7
 30e:	bd80      	pop	{r7, pc}

00000310 <blink_once>:
 310:	b580      	push	{r7, lr}
 312:	b082      	sub	sp, #8
 314:	af00      	add	r7, sp, #0
 316:	6078      	str	r0, [r7, #4]
 318:	23fa      	movs	r3, #250	; 0xfa
 31a:	005b      	lsls	r3, r3, #1
 31c:	0018      	movs	r0, r3
 31e:	f000 fb35 	bl	98c <systick_delay>
 322:	687b      	ldr	r3, [r7, #4]
 324:	2101      	movs	r1, #1
 326:	0018      	movs	r0, r3
 328:	f000 fc40 	bl	bac <gpio_digital_write>
 32c:	23fa      	movs	r3, #250	; 0xfa
 32e:	005b      	lsls	r3, r3, #1
 330:	0018      	movs	r0, r3
 332:	f000 fb2b 	bl	98c <systick_delay>
 336:	687b      	ldr	r3, [r7, #4]
 338:	2100      	movs	r1, #0
 33a:	0018      	movs	r0, r3
 33c:	f000 fc36 	bl	bac <gpio_digital_write>
 340:	46c0      	nop			; (mov r8, r8)
 342:	46bd      	mov	sp, r7
 344:	b002      	add	sp, #8
 346:	bd80      	pop	{r7, pc}

00000348 <main>:
 348:	b580      	push	{r7, lr}
 34a:	af00      	add	r7, sp, #0
 34c:	4b41      	ldr	r3, [pc, #260]	; (454 <main+0x10c>)
 34e:	2201      	movs	r2, #1
 350:	601a      	str	r2, [r3, #0]
 352:	23fa      	movs	r3, #250	; 0xfa
 354:	009b      	lsls	r3, r3, #2
 356:	0018      	movs	r0, r3
 358:	f000 fa5a 	bl	810 <enable_systick>
 35c:	f000 fce6 	bl	d2c <peripheral_enable_gpio>
 360:	f000 f9d0 	bl	704 <peripheral_get_enabled>
 364:	0002      	movs	r2, r0
 366:	2380      	movs	r3, #128	; 0x80
 368:	005b      	lsls	r3, r3, #1
 36a:	4313      	orrs	r3, r2
 36c:	0018      	movs	r0, r3
 36e:	f000 f9bb 	bl	6e8 <peripheral_set_enabled>
 372:	4b39      	ldr	r3, [pc, #228]	; (458 <main+0x110>)
 374:	4839      	ldr	r0, [pc, #228]	; (45c <main+0x114>)
 376:	781a      	ldrb	r2, [r3, #0]
 378:	785b      	ldrb	r3, [r3, #1]
 37a:	021b      	lsls	r3, r3, #8
 37c:	431a      	orrs	r2, r3
 37e:	2300      	movs	r3, #0
 380:	0412      	lsls	r2, r2, #16
 382:	0c12      	lsrs	r2, r2, #16
 384:	0c1b      	lsrs	r3, r3, #16
 386:	041b      	lsls	r3, r3, #16
 388:	4313      	orrs	r3, r2
 38a:	0019      	movs	r1, r3
 38c:	f000 fb48 	bl	a20 <gpio_configure>
 390:	4b31      	ldr	r3, [pc, #196]	; (458 <main+0x110>)
 392:	4833      	ldr	r0, [pc, #204]	; (460 <main+0x118>)
 394:	781a      	ldrb	r2, [r3, #0]
 396:	785b      	ldrb	r3, [r3, #1]
 398:	021b      	lsls	r3, r3, #8
 39a:	431a      	orrs	r2, r3
 39c:	2300      	movs	r3, #0
 39e:	0412      	lsls	r2, r2, #16
 3a0:	0c12      	lsrs	r2, r2, #16
 3a2:	0c1b      	lsrs	r3, r3, #16
 3a4:	041b      	lsls	r3, r3, #16
 3a6:	4313      	orrs	r3, r2
 3a8:	0019      	movs	r1, r3
 3aa:	f000 fb39 	bl	a20 <gpio_configure>
 3ae:	4b29      	ldr	r3, [pc, #164]	; (454 <main+0x10c>)
 3b0:	681b      	ldr	r3, [r3, #0]
 3b2:	b2da      	uxtb	r2, r3
 3b4:	4b29      	ldr	r3, [pc, #164]	; (45c <main+0x114>)
 3b6:	0011      	movs	r1, r2
 3b8:	0018      	movs	r0, r3
 3ba:	f000 fbf7 	bl	bac <gpio_digital_write>
 3be:	4b25      	ldr	r3, [pc, #148]	; (454 <main+0x10c>)
 3c0:	681b      	ldr	r3, [r3, #0]
 3c2:	b2da      	uxtb	r2, r3
 3c4:	4b26      	ldr	r3, [pc, #152]	; (460 <main+0x118>)
 3c6:	0011      	movs	r1, r2
 3c8:	0018      	movs	r0, r3
 3ca:	f000 fbef 	bl	bac <gpio_digital_write>
 3ce:	4b25      	ldr	r3, [pc, #148]	; (464 <main+0x11c>)
 3d0:	899a      	ldrh	r2, [r3, #12]
 3d2:	2101      	movs	r1, #1
 3d4:	438a      	bics	r2, r1
 3d6:	819a      	strh	r2, [r3, #12]
 3d8:	4b22      	ldr	r3, [pc, #136]	; (464 <main+0x11c>)
 3da:	2200      	movs	r2, #0
 3dc:	615a      	str	r2, [r3, #20]
 3de:	4b21      	ldr	r3, [pc, #132]	; (464 <main+0x11c>)
 3e0:	899a      	ldrh	r2, [r3, #12]
 3e2:	2102      	movs	r1, #2
 3e4:	438a      	bics	r2, r1
 3e6:	819a      	strh	r2, [r3, #12]
 3e8:	4b1e      	ldr	r3, [pc, #120]	; (464 <main+0x11c>)
 3ea:	899a      	ldrh	r2, [r3, #12]
 3ec:	2104      	movs	r1, #4
 3ee:	438a      	bics	r2, r1
 3f0:	819a      	strh	r2, [r3, #12]
 3f2:	4b1c      	ldr	r3, [pc, #112]	; (464 <main+0x11c>)
 3f4:	899a      	ldrh	r2, [r3, #12]
 3f6:	2108      	movs	r1, #8
 3f8:	438a      	bics	r2, r1
 3fa:	819a      	strh	r2, [r3, #12]
 3fc:	4b19      	ldr	r3, [pc, #100]	; (464 <main+0x11c>)
 3fe:	899a      	ldrh	r2, [r3, #12]
 400:	2170      	movs	r1, #112	; 0x70
 402:	438a      	bics	r2, r1
 404:	1c11      	adds	r1, r2, #0
 406:	2220      	movs	r2, #32
 408:	430a      	orrs	r2, r1
 40a:	819a      	strh	r2, [r3, #12]
 40c:	4b15      	ldr	r3, [pc, #84]	; (464 <main+0x11c>)
 40e:	899a      	ldrh	r2, [r3, #12]
 410:	4915      	ldr	r1, [pc, #84]	; (468 <main+0x120>)
 412:	400a      	ands	r2, r1
 414:	819a      	strh	r2, [r3, #12]
 416:	4b13      	ldr	r3, [pc, #76]	; (464 <main+0x11c>)
 418:	899a      	ldrh	r2, [r3, #12]
 41a:	4914      	ldr	r1, [pc, #80]	; (46c <main+0x124>)
 41c:	400a      	ands	r2, r1
 41e:	819a      	strh	r2, [r3, #12]
 420:	4b10      	ldr	r3, [pc, #64]	; (464 <main+0x11c>)
 422:	899a      	ldrh	r2, [r3, #12]
 424:	2180      	movs	r1, #128	; 0x80
 426:	00c9      	lsls	r1, r1, #3
 428:	430a      	orrs	r2, r1
 42a:	819a      	strh	r2, [r3, #12]
 42c:	4b0d      	ldr	r3, [pc, #52]	; (464 <main+0x11c>)
 42e:	2200      	movs	r2, #0
 430:	605a      	str	r2, [r3, #4]
 432:	4b0c      	ldr	r3, [pc, #48]	; (464 <main+0x11c>)
 434:	4a0e      	ldr	r2, [pc, #56]	; (470 <main+0x128>)
 436:	609a      	str	r2, [r3, #8]
 438:	4b0a      	ldr	r3, [pc, #40]	; (464 <main+0x11c>)
 43a:	2200      	movs	r2, #0
 43c:	601a      	str	r2, [r3, #0]
 43e:	4b09      	ldr	r3, [pc, #36]	; (464 <main+0x11c>)
 440:	899a      	ldrh	r2, [r3, #12]
 442:	2101      	movs	r1, #1
 444:	430a      	orrs	r2, r1
 446:	819a      	strh	r2, [r3, #12]
 448:	4b04      	ldr	r3, [pc, #16]	; (45c <main+0x114>)
 44a:	0018      	movs	r0, r3
 44c:	f7ff ff60 	bl	310 <blink_once>
 450:	e7fa      	b.n	448 <main+0x100>
 452:	46c0      	nop			; (mov r8, r8)
 454:	20000000 	.word	0x20000000
 458:	00000fa0 	.word	0x00000fa0
 45c:	00000ea0 	.word	0x00000ea0
 460:	00000eb0 	.word	0x00000eb0
 464:	40000c00 	.word	0x40000c00
 468:	fffffeff 	.word	0xfffffeff
 46c:	fffffdff 	.word	0xfffffdff
 470:	ffff0000 	.word	0xffff0000

00000474 <Reset_Handler>:
 474:	b580      	push	{r7, lr}
 476:	b082      	sub	sp, #8
 478:	af00      	add	r7, sp, #0
 47a:	4b11      	ldr	r3, [pc, #68]	; (4c0 <Reset_Handler+0x4c>)
 47c:	607b      	str	r3, [r7, #4]
 47e:	4b11      	ldr	r3, [pc, #68]	; (4c4 <Reset_Handler+0x50>)
 480:	603b      	str	r3, [r7, #0]
 482:	e007      	b.n	494 <Reset_Handler+0x20>
 484:	687a      	ldr	r2, [r7, #4]
 486:	1d13      	adds	r3, r2, #4
 488:	607b      	str	r3, [r7, #4]
 48a:	683b      	ldr	r3, [r7, #0]
 48c:	1d19      	adds	r1, r3, #4
 48e:	6039      	str	r1, [r7, #0]
 490:	6812      	ldr	r2, [r2, #0]
 492:	601a      	str	r2, [r3, #0]
 494:	683a      	ldr	r2, [r7, #0]
 496:	4b0c      	ldr	r3, [pc, #48]	; (4c8 <Reset_Handler+0x54>)
 498:	429a      	cmp	r2, r3
 49a:	d3f3      	bcc.n	484 <Reset_Handler+0x10>
 49c:	4b0b      	ldr	r3, [pc, #44]	; (4cc <Reset_Handler+0x58>)
 49e:	603b      	str	r3, [r7, #0]
 4a0:	e004      	b.n	4ac <Reset_Handler+0x38>
 4a2:	683b      	ldr	r3, [r7, #0]
 4a4:	1d1a      	adds	r2, r3, #4
 4a6:	603a      	str	r2, [r7, #0]
 4a8:	2200      	movs	r2, #0
 4aa:	601a      	str	r2, [r3, #0]
 4ac:	683a      	ldr	r2, [r7, #0]
 4ae:	4b08      	ldr	r3, [pc, #32]	; (4d0 <Reset_Handler+0x5c>)
 4b0:	429a      	cmp	r2, r3
 4b2:	d3f6      	bcc.n	4a2 <Reset_Handler+0x2e>
 4b4:	f000 f80e 	bl	4d4 <SystemInit>
 4b8:	f7ff ff46 	bl	348 <main>
 4bc:	bf30      	wfi
 4be:	e7fd      	b.n	4bc <Reset_Handler+0x48>
 4c0:	00000fa6 	.word	0x00000fa6
 4c4:	20000000 	.word	0x20000000
 4c8:	20000000 	.word	0x20000000
 4cc:	20000000 	.word	0x20000000
 4d0:	20000054 	.word	0x20000054

000004d4 <SystemInit>:
 4d4:	b580      	push	{r7, lr}
 4d6:	af00      	add	r7, sp, #0
 4d8:	4b06      	ldr	r3, [pc, #24]	; (4f4 <SystemInit+0x20>)
 4da:	881b      	ldrh	r3, [r3, #0]
 4dc:	b29a      	uxth	r2, r3
 4de:	4b06      	ldr	r3, [pc, #24]	; (4f8 <SystemInit+0x24>)
 4e0:	601a      	str	r2, [r3, #0]
 4e2:	4b06      	ldr	r3, [pc, #24]	; (4fc <SystemInit+0x28>)
 4e4:	2200      	movs	r2, #0
 4e6:	601a      	str	r2, [r3, #0]
 4e8:	4b05      	ldr	r3, [pc, #20]	; (500 <SystemInit+0x2c>)
 4ea:	4a06      	ldr	r2, [pc, #24]	; (504 <SystemInit+0x30>)
 4ec:	601a      	str	r2, [r3, #0]
 4ee:	46c0      	nop			; (mov r8, r8)
 4f0:	46bd      	mov	sp, r7
 4f2:	bd80      	pop	{r7, pc}
 4f4:	00100c08 	.word	0x00100c08
 4f8:	4000200c 	.word	0x4000200c
 4fc:	40002000 	.word	0x40002000
 500:	20000004 	.word	0x20000004
 504:	003d0900 	.word	0x003d0900

00000508 <Dummy_Handler>:
 508:	b580      	push	{r7, lr}
 50a:	af00      	add	r7, sp, #0
 50c:	46c0      	nop			; (mov r8, r8)
 50e:	46bd      	mov	sp, r7
 510:	bd80      	pop	{r7, pc}
	...

00000514 <__NVIC_EnableIRQ>:
 514:	b580      	push	{r7, lr}
 516:	b082      	sub	sp, #8
 518:	af00      	add	r7, sp, #0
 51a:	0002      	movs	r2, r0
 51c:	1dfb      	adds	r3, r7, #7
 51e:	701a      	strb	r2, [r3, #0]
 520:	1dfb      	adds	r3, r7, #7
 522:	781b      	ldrb	r3, [r3, #0]
 524:	2b7f      	cmp	r3, #127	; 0x7f
 526:	d809      	bhi.n	53c <__NVIC_EnableIRQ+0x28>
 528:	1dfb      	adds	r3, r7, #7
 52a:	781b      	ldrb	r3, [r3, #0]
 52c:	001a      	movs	r2, r3
 52e:	231f      	movs	r3, #31
 530:	401a      	ands	r2, r3
 532:	4b04      	ldr	r3, [pc, #16]	; (544 <__NVIC_EnableIRQ+0x30>)
 534:	2101      	movs	r1, #1
 536:	4091      	lsls	r1, r2
 538:	000a      	movs	r2, r1
 53a:	601a      	str	r2, [r3, #0]
 53c:	46c0      	nop			; (mov r8, r8)
 53e:	46bd      	mov	sp, r7
 540:	b002      	add	sp, #8
 542:	bd80      	pop	{r7, pc}
 544:	e000e100 	.word	0xe000e100

00000548 <__NVIC_DisableIRQ>:
 548:	b580      	push	{r7, lr}
 54a:	b082      	sub	sp, #8
 54c:	af00      	add	r7, sp, #0
 54e:	0002      	movs	r2, r0
 550:	1dfb      	adds	r3, r7, #7
 552:	701a      	strb	r2, [r3, #0]
 554:	1dfb      	adds	r3, r7, #7
 556:	781b      	ldrb	r3, [r3, #0]
 558:	2b7f      	cmp	r3, #127	; 0x7f
 55a:	d810      	bhi.n	57e <__NVIC_DisableIRQ+0x36>
 55c:	1dfb      	adds	r3, r7, #7
 55e:	781b      	ldrb	r3, [r3, #0]
 560:	001a      	movs	r2, r3
 562:	231f      	movs	r3, #31
 564:	4013      	ands	r3, r2
 566:	4908      	ldr	r1, [pc, #32]	; (588 <__NVIC_DisableIRQ+0x40>)
 568:	2201      	movs	r2, #1
 56a:	409a      	lsls	r2, r3
 56c:	0013      	movs	r3, r2
 56e:	2280      	movs	r2, #128	; 0x80
 570:	508b      	str	r3, [r1, r2]
 572:	f3bf 8f4f 	dsb	sy
 576:	46c0      	nop			; (mov r8, r8)
 578:	f3bf 8f6f 	isb	sy
 57c:	46c0      	nop			; (mov r8, r8)
 57e:	46c0      	nop			; (mov r8, r8)
 580:	46bd      	mov	sp, r7
 582:	b002      	add	sp, #8
 584:	bd80      	pop	{r7, pc}
 586:	46c0      	nop			; (mov r8, r8)
 588:	e000e100 	.word	0xe000e100

0000058c <__NVIC_ClearPendingIRQ>:
 58c:	b580      	push	{r7, lr}
 58e:	b082      	sub	sp, #8
 590:	af00      	add	r7, sp, #0
 592:	0002      	movs	r2, r0
 594:	1dfb      	adds	r3, r7, #7
 596:	701a      	strb	r2, [r3, #0]
 598:	1dfb      	adds	r3, r7, #7
 59a:	781b      	ldrb	r3, [r3, #0]
 59c:	2b7f      	cmp	r3, #127	; 0x7f
 59e:	d80a      	bhi.n	5b6 <__NVIC_ClearPendingIRQ+0x2a>
 5a0:	1dfb      	adds	r3, r7, #7
 5a2:	781b      	ldrb	r3, [r3, #0]
 5a4:	001a      	movs	r2, r3
 5a6:	231f      	movs	r3, #31
 5a8:	4013      	ands	r3, r2
 5aa:	4905      	ldr	r1, [pc, #20]	; (5c0 <__NVIC_ClearPendingIRQ+0x34>)
 5ac:	2201      	movs	r2, #1
 5ae:	409a      	lsls	r2, r3
 5b0:	23c0      	movs	r3, #192	; 0xc0
 5b2:	005b      	lsls	r3, r3, #1
 5b4:	50ca      	str	r2, [r1, r3]
 5b6:	46c0      	nop			; (mov r8, r8)
 5b8:	46bd      	mov	sp, r7
 5ba:	b002      	add	sp, #8
 5bc:	bd80      	pop	{r7, pc}
 5be:	46c0      	nop			; (mov r8, r8)
 5c0:	e000e100 	.word	0xe000e100

000005c4 <__NVIC_SetPriority>:
 5c4:	b590      	push	{r4, r7, lr}
 5c6:	b083      	sub	sp, #12
 5c8:	af00      	add	r7, sp, #0
 5ca:	0002      	movs	r2, r0
 5cc:	6039      	str	r1, [r7, #0]
 5ce:	1dfb      	adds	r3, r7, #7
 5d0:	701a      	strb	r2, [r3, #0]
 5d2:	1dfb      	adds	r3, r7, #7
 5d4:	781b      	ldrb	r3, [r3, #0]
 5d6:	2b7f      	cmp	r3, #127	; 0x7f
 5d8:	d828      	bhi.n	62c <__NVIC_SetPriority+0x68>
 5da:	4a2f      	ldr	r2, [pc, #188]	; (698 <__NVIC_SetPriority+0xd4>)
 5dc:	1dfb      	adds	r3, r7, #7
 5de:	781b      	ldrb	r3, [r3, #0]
 5e0:	b25b      	sxtb	r3, r3
 5e2:	089b      	lsrs	r3, r3, #2
 5e4:	33c0      	adds	r3, #192	; 0xc0
 5e6:	009b      	lsls	r3, r3, #2
 5e8:	589b      	ldr	r3, [r3, r2]
 5ea:	1dfa      	adds	r2, r7, #7
 5ec:	7812      	ldrb	r2, [r2, #0]
 5ee:	0011      	movs	r1, r2
 5f0:	2203      	movs	r2, #3
 5f2:	400a      	ands	r2, r1
 5f4:	00d2      	lsls	r2, r2, #3
 5f6:	21ff      	movs	r1, #255	; 0xff
 5f8:	4091      	lsls	r1, r2
 5fa:	000a      	movs	r2, r1
 5fc:	43d2      	mvns	r2, r2
 5fe:	401a      	ands	r2, r3
 600:	0011      	movs	r1, r2
 602:	683b      	ldr	r3, [r7, #0]
 604:	019b      	lsls	r3, r3, #6
 606:	22ff      	movs	r2, #255	; 0xff
 608:	401a      	ands	r2, r3
 60a:	1dfb      	adds	r3, r7, #7
 60c:	781b      	ldrb	r3, [r3, #0]
 60e:	0018      	movs	r0, r3
 610:	2303      	movs	r3, #3
 612:	4003      	ands	r3, r0
 614:	00db      	lsls	r3, r3, #3
 616:	409a      	lsls	r2, r3
 618:	481f      	ldr	r0, [pc, #124]	; (698 <__NVIC_SetPriority+0xd4>)
 61a:	1dfb      	adds	r3, r7, #7
 61c:	781b      	ldrb	r3, [r3, #0]
 61e:	b25b      	sxtb	r3, r3
 620:	089b      	lsrs	r3, r3, #2
 622:	430a      	orrs	r2, r1
 624:	33c0      	adds	r3, #192	; 0xc0
 626:	009b      	lsls	r3, r3, #2
 628:	501a      	str	r2, [r3, r0]
 62a:	e031      	b.n	690 <__NVIC_SetPriority+0xcc>
 62c:	4a1b      	ldr	r2, [pc, #108]	; (69c <__NVIC_SetPriority+0xd8>)
 62e:	1dfb      	adds	r3, r7, #7
 630:	781b      	ldrb	r3, [r3, #0]
 632:	0019      	movs	r1, r3
 634:	230f      	movs	r3, #15
 636:	400b      	ands	r3, r1
 638:	3b08      	subs	r3, #8
 63a:	089b      	lsrs	r3, r3, #2
 63c:	3306      	adds	r3, #6
 63e:	009b      	lsls	r3, r3, #2
 640:	18d3      	adds	r3, r2, r3
 642:	3304      	adds	r3, #4
 644:	681b      	ldr	r3, [r3, #0]
 646:	1dfa      	adds	r2, r7, #7
 648:	7812      	ldrb	r2, [r2, #0]
 64a:	0011      	movs	r1, r2
 64c:	2203      	movs	r2, #3
 64e:	400a      	ands	r2, r1
 650:	00d2      	lsls	r2, r2, #3
 652:	21ff      	movs	r1, #255	; 0xff
 654:	4091      	lsls	r1, r2
 656:	000a      	movs	r2, r1
 658:	43d2      	mvns	r2, r2
 65a:	401a      	ands	r2, r3
 65c:	0011      	movs	r1, r2
 65e:	683b      	ldr	r3, [r7, #0]
 660:	019b      	lsls	r3, r3, #6
 662:	22ff      	movs	r2, #255	; 0xff
 664:	401a      	ands	r2, r3
 666:	1dfb      	adds	r3, r7, #7
 668:	781b      	ldrb	r3, [r3, #0]
 66a:	0018      	movs	r0, r3
 66c:	2303      	movs	r3, #3
 66e:	4003      	ands	r3, r0
 670:	00db      	lsls	r3, r3, #3
 672:	409a      	lsls	r2, r3
 674:	4809      	ldr	r0, [pc, #36]	; (69c <__NVIC_SetPriority+0xd8>)
 676:	1dfb      	adds	r3, r7, #7
 678:	781b      	ldrb	r3, [r3, #0]
 67a:	001c      	movs	r4, r3
 67c:	230f      	movs	r3, #15
 67e:	4023      	ands	r3, r4
 680:	3b08      	subs	r3, #8
 682:	089b      	lsrs	r3, r3, #2
 684:	430a      	orrs	r2, r1
 686:	3306      	adds	r3, #6
 688:	009b      	lsls	r3, r3, #2
 68a:	18c3      	adds	r3, r0, r3
 68c:	3304      	adds	r3, #4
 68e:	601a      	str	r2, [r3, #0]
 690:	46c0      	nop			; (mov r8, r8)
 692:	46bd      	mov	sp, r7
 694:	b003      	add	sp, #12
 696:	bd90      	pop	{r4, r7, pc}
 698:	e000e100 	.word	0xe000e100
 69c:	e000ed00 	.word	0xe000ed00

000006a0 <SysTick_Config>:
 6a0:	b580      	push	{r7, lr}
 6a2:	b082      	sub	sp, #8
 6a4:	af00      	add	r7, sp, #0
 6a6:	6078      	str	r0, [r7, #4]
 6a8:	687b      	ldr	r3, [r7, #4]
 6aa:	1e5a      	subs	r2, r3, #1
 6ac:	2380      	movs	r3, #128	; 0x80
 6ae:	045b      	lsls	r3, r3, #17
 6b0:	429a      	cmp	r2, r3
 6b2:	d301      	bcc.n	6b8 <SysTick_Config+0x18>
 6b4:	2301      	movs	r3, #1
 6b6:	e010      	b.n	6da <SysTick_Config+0x3a>
 6b8:	4b0a      	ldr	r3, [pc, #40]	; (6e4 <SysTick_Config+0x44>)
 6ba:	687a      	ldr	r2, [r7, #4]
 6bc:	3a01      	subs	r2, #1
 6be:	605a      	str	r2, [r3, #4]
 6c0:	2301      	movs	r3, #1
 6c2:	425b      	negs	r3, r3
 6c4:	2103      	movs	r1, #3
 6c6:	0018      	movs	r0, r3
 6c8:	f7ff ff7c 	bl	5c4 <__NVIC_SetPriority>
 6cc:	4b05      	ldr	r3, [pc, #20]	; (6e4 <SysTick_Config+0x44>)
 6ce:	2200      	movs	r2, #0
 6d0:	609a      	str	r2, [r3, #8]
 6d2:	4b04      	ldr	r3, [pc, #16]	; (6e4 <SysTick_Config+0x44>)
 6d4:	2207      	movs	r2, #7
 6d6:	601a      	str	r2, [r3, #0]
 6d8:	2300      	movs	r3, #0
 6da:	0018      	movs	r0, r3
 6dc:	46bd      	mov	sp, r7
 6de:	b002      	add	sp, #8
 6e0:	bd80      	pop	{r7, pc}
 6e2:	46c0      	nop			; (mov r8, r8)
 6e4:	e000e010 	.word	0xe000e010

000006e8 <peripheral_set_enabled>:
 6e8:	b580      	push	{r7, lr}
 6ea:	b082      	sub	sp, #8
 6ec:	af00      	add	r7, sp, #0
 6ee:	6078      	str	r0, [r7, #4]
 6f0:	4b03      	ldr	r3, [pc, #12]	; (700 <peripheral_set_enabled+0x18>)
 6f2:	687a      	ldr	r2, [r7, #4]
 6f4:	621a      	str	r2, [r3, #32]
 6f6:	46c0      	nop			; (mov r8, r8)
 6f8:	46bd      	mov	sp, r7
 6fa:	b002      	add	sp, #8
 6fc:	bd80      	pop	{r7, pc}
 6fe:	46c0      	nop			; (mov r8, r8)
 700:	40002000 	.word	0x40002000

00000704 <peripheral_get_enabled>:
 704:	b580      	push	{r7, lr}
 706:	af00      	add	r7, sp, #0
 708:	4b02      	ldr	r3, [pc, #8]	; (714 <peripheral_get_enabled+0x10>)
 70a:	6a1b      	ldr	r3, [r3, #32]
 70c:	0018      	movs	r0, r3
 70e:	46bd      	mov	sp, r7
 710:	bd80      	pop	{r7, pc}
 712:	46c0      	nop			; (mov r8, r8)
 714:	40002000 	.word	0x40002000

00000718 <nvic_clear_interrupt>:
 718:	b580      	push	{r7, lr}
 71a:	b082      	sub	sp, #8
 71c:	af00      	add	r7, sp, #0
 71e:	0002      	movs	r2, r0
 720:	1dfb      	adds	r3, r7, #7
 722:	701a      	strb	r2, [r3, #0]
 724:	1dfb      	adds	r3, r7, #7
 726:	781b      	ldrb	r3, [r3, #0]
 728:	b25b      	sxtb	r3, r3
 72a:	0018      	movs	r0, r3
 72c:	f7ff ff2e 	bl	58c <__NVIC_ClearPendingIRQ>
 730:	46c0      	nop			; (mov r8, r8)
 732:	46bd      	mov	sp, r7
 734:	b002      	add	sp, #8
 736:	bd80      	pop	{r7, pc}

00000738 <nvic_enable_interrupt>:
 738:	b580      	push	{r7, lr}
 73a:	b082      	sub	sp, #8
 73c:	af00      	add	r7, sp, #0
 73e:	0002      	movs	r2, r0
 740:	1dfb      	adds	r3, r7, #7
 742:	701a      	strb	r2, [r3, #0]
 744:	1dfb      	adds	r3, r7, #7
 746:	781b      	ldrb	r3, [r3, #0]
 748:	b25b      	sxtb	r3, r3
 74a:	0018      	movs	r0, r3
 74c:	f7ff fee2 	bl	514 <__NVIC_EnableIRQ>
 750:	46c0      	nop			; (mov r8, r8)
 752:	46bd      	mov	sp, r7
 754:	b002      	add	sp, #8
 756:	bd80      	pop	{r7, pc}

00000758 <nvic_disable_interrupt>:
 758:	b580      	push	{r7, lr}
 75a:	b082      	sub	sp, #8
 75c:	af00      	add	r7, sp, #0
 75e:	0002      	movs	r2, r0
 760:	1dfb      	adds	r3, r7, #7
 762:	701a      	strb	r2, [r3, #0]
 764:	1dfb      	adds	r3, r7, #7
 766:	781b      	ldrb	r3, [r3, #0]
 768:	b25b      	sxtb	r3, r3
 76a:	0018      	movs	r0, r3
 76c:	f7ff feec 	bl	548 <__NVIC_DisableIRQ>
 770:	46c0      	nop			; (mov r8, r8)
 772:	46bd      	mov	sp, r7
 774:	b002      	add	sp, #8
 776:	bd80      	pop	{r7, pc}

00000778 <nvic_configure_interrupt>:
 778:	b590      	push	{r4, r7, lr}
 77a:	b083      	sub	sp, #12
 77c:	af00      	add	r7, sp, #0
 77e:	0004      	movs	r4, r0
 780:	0008      	movs	r0, r1
 782:	0011      	movs	r1, r2
 784:	1dfb      	adds	r3, r7, #7
 786:	1c22      	adds	r2, r4, #0
 788:	701a      	strb	r2, [r3, #0]
 78a:	1dbb      	adds	r3, r7, #6
 78c:	1c02      	adds	r2, r0, #0
 78e:	701a      	strb	r2, [r3, #0]
 790:	1d7b      	adds	r3, r7, #5
 792:	1c0a      	adds	r2, r1, #0
 794:	701a      	strb	r2, [r3, #0]
 796:	1dfb      	adds	r3, r7, #7
 798:	781b      	ldrb	r3, [r3, #0]
 79a:	b25b      	sxtb	r3, r3
 79c:	0018      	movs	r0, r3
 79e:	f7ff ffbb 	bl	718 <nvic_clear_interrupt>
 7a2:	1dbb      	adds	r3, r7, #6
 7a4:	781a      	ldrb	r2, [r3, #0]
 7a6:	1dfb      	adds	r3, r7, #7
 7a8:	781b      	ldrb	r3, [r3, #0]
 7aa:	b25b      	sxtb	r3, r3
 7ac:	0011      	movs	r1, r2
 7ae:	0018      	movs	r0, r3
 7b0:	f7ff ff08 	bl	5c4 <__NVIC_SetPriority>
 7b4:	1d7b      	adds	r3, r7, #5
 7b6:	781b      	ldrb	r3, [r3, #0]
 7b8:	2b00      	cmp	r3, #0
 7ba:	d006      	beq.n	7ca <nvic_configure_interrupt+0x52>
 7bc:	1dfb      	adds	r3, r7, #7
 7be:	781b      	ldrb	r3, [r3, #0]
 7c0:	b25b      	sxtb	r3, r3
 7c2:	0018      	movs	r0, r3
 7c4:	f7ff ffb8 	bl	738 <nvic_enable_interrupt>
 7c8:	e005      	b.n	7d6 <nvic_configure_interrupt+0x5e>
 7ca:	1dfb      	adds	r3, r7, #7
 7cc:	781b      	ldrb	r3, [r3, #0]
 7ce:	b25b      	sxtb	r3, r3
 7d0:	0018      	movs	r0, r3
 7d2:	f7ff ffc1 	bl	758 <nvic_disable_interrupt>
 7d6:	46c0      	nop			; (mov r8, r8)
 7d8:	46bd      	mov	sp, r7
 7da:	b003      	add	sp, #12
 7dc:	bd90      	pop	{r4, r7, pc}
	...

000007e0 <__systick_start>:
 7e0:	b580      	push	{r7, lr}
 7e2:	af00      	add	r7, sp, #0
 7e4:	4b02      	ldr	r3, [pc, #8]	; (7f0 <__systick_start+0x10>)
 7e6:	2207      	movs	r2, #7
 7e8:	601a      	str	r2, [r3, #0]
 7ea:	46c0      	nop			; (mov r8, r8)
 7ec:	46bd      	mov	sp, r7
 7ee:	bd80      	pop	{r7, pc}
 7f0:	e000e010 	.word	0xe000e010

000007f4 <__systick_stop>:
 7f4:	b580      	push	{r7, lr}
 7f6:	af00      	add	r7, sp, #0
 7f8:	4b04      	ldr	r3, [pc, #16]	; (80c <__systick_stop+0x18>)
 7fa:	681a      	ldr	r2, [r3, #0]
 7fc:	4b03      	ldr	r3, [pc, #12]	; (80c <__systick_stop+0x18>)
 7fe:	2107      	movs	r1, #7
 800:	438a      	bics	r2, r1
 802:	601a      	str	r2, [r3, #0]
 804:	46c0      	nop			; (mov r8, r8)
 806:	46bd      	mov	sp, r7
 808:	bd80      	pop	{r7, pc}
 80a:	46c0      	nop			; (mov r8, r8)
 80c:	e000e010 	.word	0xe000e010

00000810 <enable_systick>:
 810:	b580      	push	{r7, lr}
 812:	b084      	sub	sp, #16
 814:	af00      	add	r7, sp, #0
 816:	6078      	str	r0, [r7, #4]
 818:	687b      	ldr	r3, [r7, #4]
 81a:	2b00      	cmp	r3, #0
 81c:	d01d      	beq.n	85a <enable_systick+0x4a>
 81e:	f7ff ff71 	bl	704 <peripheral_get_enabled>
 822:	0002      	movs	r2, r0
 824:	2380      	movs	r3, #128	; 0x80
 826:	045b      	lsls	r3, r3, #17
 828:	4313      	orrs	r3, r2
 82a:	0018      	movs	r0, r3
 82c:	f7ff ff5c 	bl	6e8 <peripheral_set_enabled>
 830:	4b11      	ldr	r3, [pc, #68]	; (878 <enable_systick+0x68>)
 832:	681b      	ldr	r3, [r3, #0]
 834:	6879      	ldr	r1, [r7, #4]
 836:	0018      	movs	r0, r3
 838:	f000 faa6 	bl	d88 <__udivsi3>
 83c:	0003      	movs	r3, r0
 83e:	60fb      	str	r3, [r7, #12]
 840:	68fb      	ldr	r3, [r7, #12]
 842:	0018      	movs	r0, r3
 844:	f7ff ff2c 	bl	6a0 <SysTick_Config>
 848:	2301      	movs	r3, #1
 84a:	425b      	negs	r3, r3
 84c:	2103      	movs	r1, #3
 84e:	0018      	movs	r0, r3
 850:	f7ff feb8 	bl	5c4 <__NVIC_SetPriority>
 854:	f7ff ffc4 	bl	7e0 <__systick_start>
 858:	e009      	b.n	86e <enable_systick+0x5e>
 85a:	f7ff ffcb 	bl	7f4 <__systick_stop>
 85e:	f7ff ff51 	bl	704 <peripheral_get_enabled>
 862:	0003      	movs	r3, r0
 864:	4a05      	ldr	r2, [pc, #20]	; (87c <enable_systick+0x6c>)
 866:	4013      	ands	r3, r2
 868:	0018      	movs	r0, r3
 86a:	f7ff ff3d 	bl	6e8 <peripheral_set_enabled>
 86e:	46c0      	nop			; (mov r8, r8)
 870:	46bd      	mov	sp, r7
 872:	b004      	add	sp, #16
 874:	bd80      	pop	{r7, pc}
 876:	46c0      	nop			; (mov r8, r8)
 878:	20000008 	.word	0x20000008
 87c:	feffffff 	.word	0xfeffffff

00000880 <systick_time_since>:
 880:	b580      	push	{r7, lr}
 882:	b084      	sub	sp, #16
 884:	af00      	add	r7, sp, #0
 886:	6078      	str	r0, [r7, #4]
 888:	4b0d      	ldr	r3, [pc, #52]	; (8c0 <systick_time_since+0x40>)
 88a:	681b      	ldr	r3, [r3, #0]
 88c:	2207      	movs	r2, #7
 88e:	4013      	ands	r3, r2
 890:	2b07      	cmp	r3, #7
 892:	d001      	beq.n	898 <systick_time_since+0x18>
 894:	2300      	movs	r3, #0
 896:	e00e      	b.n	8b6 <systick_time_since+0x36>
 898:	4b0a      	ldr	r3, [pc, #40]	; (8c4 <systick_time_since+0x44>)
 89a:	685b      	ldr	r3, [r3, #4]
 89c:	60fb      	str	r3, [r7, #12]
 89e:	68fa      	ldr	r2, [r7, #12]
 8a0:	687b      	ldr	r3, [r7, #4]
 8a2:	429a      	cmp	r2, r3
 8a4:	d204      	bcs.n	8b0 <systick_time_since+0x30>
 8a6:	68fa      	ldr	r2, [r7, #12]
 8a8:	687b      	ldr	r3, [r7, #4]
 8aa:	1ad3      	subs	r3, r2, r3
 8ac:	3b01      	subs	r3, #1
 8ae:	e002      	b.n	8b6 <systick_time_since+0x36>
 8b0:	68fa      	ldr	r2, [r7, #12]
 8b2:	687b      	ldr	r3, [r7, #4]
 8b4:	1ad3      	subs	r3, r2, r3
 8b6:	0018      	movs	r0, r3
 8b8:	46bd      	mov	sp, r7
 8ba:	b004      	add	sp, #16
 8bc:	bd80      	pop	{r7, pc}
 8be:	46c0      	nop			; (mov r8, r8)
 8c0:	e000e010 	.word	0xe000e010
 8c4:	2000000c 	.word	0x2000000c

000008c8 <systick_current_value>:
 8c8:	b580      	push	{r7, lr}
 8ca:	af00      	add	r7, sp, #0
 8cc:	4b02      	ldr	r3, [pc, #8]	; (8d8 <systick_current_value+0x10>)
 8ce:	685b      	ldr	r3, [r3, #4]
 8d0:	0018      	movs	r0, r3
 8d2:	46bd      	mov	sp, r7
 8d4:	bd80      	pop	{r7, pc}
 8d6:	46c0      	nop			; (mov r8, r8)
 8d8:	2000000c 	.word	0x2000000c

000008dc <systick_counter_start>:
 8dc:	b580      	push	{r7, lr}
 8de:	b084      	sub	sp, #16
 8e0:	af00      	add	r7, sp, #0
 8e2:	6078      	str	r0, [r7, #4]
 8e4:	687a      	ldr	r2, [r7, #4]
 8e6:	4b0f      	ldr	r3, [pc, #60]	; (924 <systick_counter_start+0x48>)
 8e8:	429a      	cmp	r2, r3
 8ea:	d017      	beq.n	91c <systick_counter_start+0x40>
 8ec:	687b      	ldr	r3, [r7, #4]
 8ee:	2200      	movs	r2, #0
 8f0:	605a      	str	r2, [r3, #4]
 8f2:	687b      	ldr	r3, [r7, #4]
 8f4:	2200      	movs	r2, #0
 8f6:	601a      	str	r2, [r3, #0]
 8f8:	4b0a      	ldr	r3, [pc, #40]	; (924 <systick_counter_start+0x48>)
 8fa:	60fb      	str	r3, [r7, #12]
 8fc:	f7ff ff7a 	bl	7f4 <__systick_stop>
 900:	e002      	b.n	908 <systick_counter_start+0x2c>
 902:	68fb      	ldr	r3, [r7, #12]
 904:	681b      	ldr	r3, [r3, #0]
 906:	60fb      	str	r3, [r7, #12]
 908:	68fb      	ldr	r3, [r7, #12]
 90a:	681b      	ldr	r3, [r3, #0]
 90c:	2b00      	cmp	r3, #0
 90e:	d1f8      	bne.n	902 <systick_counter_start+0x26>
 910:	68fb      	ldr	r3, [r7, #12]
 912:	687a      	ldr	r2, [r7, #4]
 914:	601a      	str	r2, [r3, #0]
 916:	f7ff ff63 	bl	7e0 <__systick_start>
 91a:	e000      	b.n	91e <systick_counter_start+0x42>
 91c:	46c0      	nop			; (mov r8, r8)
 91e:	46bd      	mov	sp, r7
 920:	b004      	add	sp, #16
 922:	bd80      	pop	{r7, pc}
 924:	2000000c 	.word	0x2000000c

00000928 <systick_counter_elapsed>:
 928:	b580      	push	{r7, lr}
 92a:	b082      	sub	sp, #8
 92c:	af00      	add	r7, sp, #0
 92e:	6078      	str	r0, [r7, #4]
 930:	687b      	ldr	r3, [r7, #4]
 932:	685b      	ldr	r3, [r3, #4]
 934:	0018      	movs	r0, r3
 936:	46bd      	mov	sp, r7
 938:	b002      	add	sp, #8
 93a:	bd80      	pop	{r7, pc}

0000093c <systick_counter_complete>:
 93c:	b580      	push	{r7, lr}
 93e:	b084      	sub	sp, #16
 940:	af00      	add	r7, sp, #0
 942:	6078      	str	r0, [r7, #4]
 944:	687a      	ldr	r2, [r7, #4]
 946:	4b10      	ldr	r3, [pc, #64]	; (988 <systick_counter_complete+0x4c>)
 948:	429a      	cmp	r2, r3
 94a:	d019      	beq.n	980 <systick_counter_complete+0x44>
 94c:	4b0e      	ldr	r3, [pc, #56]	; (988 <systick_counter_complete+0x4c>)
 94e:	60fb      	str	r3, [r7, #12]
 950:	f7ff ff50 	bl	7f4 <__systick_stop>
 954:	e002      	b.n	95c <systick_counter_complete+0x20>
 956:	68fb      	ldr	r3, [r7, #12]
 958:	681b      	ldr	r3, [r3, #0]
 95a:	60fb      	str	r3, [r7, #12]
 95c:	68fb      	ldr	r3, [r7, #12]
 95e:	681b      	ldr	r3, [r3, #0]
 960:	687a      	ldr	r2, [r7, #4]
 962:	429a      	cmp	r2, r3
 964:	d1f7      	bne.n	956 <systick_counter_complete+0x1a>
 966:	687b      	ldr	r3, [r7, #4]
 968:	681a      	ldr	r2, [r3, #0]
 96a:	68fb      	ldr	r3, [r7, #12]
 96c:	601a      	str	r2, [r3, #0]
 96e:	687b      	ldr	r3, [r7, #4]
 970:	2200      	movs	r2, #0
 972:	601a      	str	r2, [r3, #0]
 974:	687b      	ldr	r3, [r7, #4]
 976:	2200      	movs	r2, #0
 978:	605a      	str	r2, [r3, #4]
 97a:	f7ff ff31 	bl	7e0 <__systick_start>
 97e:	e000      	b.n	982 <systick_counter_complete+0x46>
 980:	46c0      	nop			; (mov r8, r8)
 982:	46bd      	mov	sp, r7
 984:	b004      	add	sp, #16
 986:	bd80      	pop	{r7, pc}
 988:	2000000c 	.word	0x2000000c

0000098c <systick_delay>:
 98c:	b580      	push	{r7, lr}
 98e:	b084      	sub	sp, #16
 990:	af00      	add	r7, sp, #0
 992:	6078      	str	r0, [r7, #4]
 994:	2308      	movs	r3, #8
 996:	18fb      	adds	r3, r7, r3
 998:	0018      	movs	r0, r3
 99a:	f7ff ff9f 	bl	8dc <systick_counter_start>
 99e:	e000      	b.n	9a2 <systick_delay+0x16>
 9a0:	46c0      	nop			; (mov r8, r8)
 9a2:	2108      	movs	r1, #8
 9a4:	187b      	adds	r3, r7, r1
 9a6:	685b      	ldr	r3, [r3, #4]
 9a8:	687a      	ldr	r2, [r7, #4]
 9aa:	429a      	cmp	r2, r3
 9ac:	d8f8      	bhi.n	9a0 <systick_delay+0x14>
 9ae:	187b      	adds	r3, r7, r1
 9b0:	0018      	movs	r0, r3
 9b2:	f7ff ffc3 	bl	93c <systick_counter_complete>
 9b6:	46c0      	nop			; (mov r8, r8)
 9b8:	46bd      	mov	sp, r7
 9ba:	b004      	add	sp, #16
 9bc:	bd80      	pop	{r7, pc}

000009be <systick_counter_delay>:
 9be:	b580      	push	{r7, lr}
 9c0:	b082      	sub	sp, #8
 9c2:	af00      	add	r7, sp, #0
 9c4:	6078      	str	r0, [r7, #4]
 9c6:	6039      	str	r1, [r7, #0]
 9c8:	687b      	ldr	r3, [r7, #4]
 9ca:	0018      	movs	r0, r3
 9cc:	f7ff ff86 	bl	8dc <systick_counter_start>
 9d0:	e000      	b.n	9d4 <systick_counter_delay+0x16>
 9d2:	46c0      	nop			; (mov r8, r8)
 9d4:	687b      	ldr	r3, [r7, #4]
 9d6:	685b      	ldr	r3, [r3, #4]
 9d8:	683a      	ldr	r2, [r7, #0]
 9da:	429a      	cmp	r2, r3
 9dc:	d8f9      	bhi.n	9d2 <systick_counter_delay+0x14>
 9de:	687b      	ldr	r3, [r7, #4]
 9e0:	0018      	movs	r0, r3
 9e2:	f7ff ffab 	bl	93c <systick_counter_complete>
 9e6:	46c0      	nop			; (mov r8, r8)
 9e8:	46bd      	mov	sp, r7
 9ea:	b002      	add	sp, #8
 9ec:	bd80      	pop	{r7, pc}
	...

000009f0 <SysTick_Handler>:
 9f0:	b580      	push	{r7, lr}
 9f2:	b082      	sub	sp, #8
 9f4:	af00      	add	r7, sp, #0
 9f6:	4b09      	ldr	r3, [pc, #36]	; (a1c <SysTick_Handler+0x2c>)
 9f8:	607b      	str	r3, [r7, #4]
 9fa:	e007      	b.n	a0c <SysTick_Handler+0x1c>
 9fc:	687b      	ldr	r3, [r7, #4]
 9fe:	685b      	ldr	r3, [r3, #4]
 a00:	1c5a      	adds	r2, r3, #1
 a02:	687b      	ldr	r3, [r7, #4]
 a04:	605a      	str	r2, [r3, #4]
 a06:	687b      	ldr	r3, [r7, #4]
 a08:	681b      	ldr	r3, [r3, #0]
 a0a:	607b      	str	r3, [r7, #4]
 a0c:	687b      	ldr	r3, [r7, #4]
 a0e:	2b00      	cmp	r3, #0
 a10:	d1f4      	bne.n	9fc <SysTick_Handler+0xc>
 a12:	46c0      	nop			; (mov r8, r8)
 a14:	46c0      	nop			; (mov r8, r8)
 a16:	46bd      	mov	sp, r7
 a18:	b002      	add	sp, #8
 a1a:	bd80      	pop	{r7, pc}
 a1c:	2000000c 	.word	0x2000000c

00000a20 <gpio_configure>:
 a20:	b580      	push	{r7, lr}
 a22:	b082      	sub	sp, #8
 a24:	af00      	add	r7, sp, #0
 a26:	6078      	str	r0, [r7, #4]
 a28:	003b      	movs	r3, r7
 a2a:	8019      	strh	r1, [r3, #0]
 a2c:	687b      	ldr	r3, [r7, #4]
 a2e:	685b      	ldr	r3, [r3, #4]
 a30:	681b      	ldr	r3, [r3, #0]
 a32:	687a      	ldr	r2, [r7, #4]
 a34:	7b12      	ldrb	r2, [r2, #12]
 a36:	0011      	movs	r1, r2
 a38:	2201      	movs	r2, #1
 a3a:	408a      	lsls	r2, r1
 a3c:	43d2      	mvns	r2, r2
 a3e:	401a      	ands	r2, r3
 a40:	003b      	movs	r3, r7
 a42:	781b      	ldrb	r3, [r3, #0]
 a44:	07db      	lsls	r3, r3, #31
 a46:	0fdb      	lsrs	r3, r3, #31
 a48:	b2db      	uxtb	r3, r3
 a4a:	0019      	movs	r1, r3
 a4c:	687b      	ldr	r3, [r7, #4]
 a4e:	7b1b      	ldrb	r3, [r3, #12]
 a50:	4099      	lsls	r1, r3
 a52:	000b      	movs	r3, r1
 a54:	0019      	movs	r1, r3
 a56:	687b      	ldr	r3, [r7, #4]
 a58:	685b      	ldr	r3, [r3, #4]
 a5a:	430a      	orrs	r2, r1
 a5c:	601a      	str	r2, [r3, #0]
 a5e:	687b      	ldr	r3, [r7, #4]
 a60:	685b      	ldr	r3, [r3, #4]
 a62:	68db      	ldr	r3, [r3, #12]
 a64:	687a      	ldr	r2, [r7, #4]
 a66:	7b12      	ldrb	r2, [r2, #12]
 a68:	0011      	movs	r1, r2
 a6a:	2201      	movs	r2, #1
 a6c:	408a      	lsls	r2, r1
 a6e:	43d2      	mvns	r2, r2
 a70:	401a      	ands	r2, r3
 a72:	003b      	movs	r3, r7
 a74:	781b      	ldrb	r3, [r3, #0]
 a76:	079b      	lsls	r3, r3, #30
 a78:	0fdb      	lsrs	r3, r3, #31
 a7a:	b2db      	uxtb	r3, r3
 a7c:	0019      	movs	r1, r3
 a7e:	687b      	ldr	r3, [r7, #4]
 a80:	7b1b      	ldrb	r3, [r3, #12]
 a82:	4099      	lsls	r1, r3
 a84:	000b      	movs	r3, r1
 a86:	0019      	movs	r1, r3
 a88:	687b      	ldr	r3, [r7, #4]
 a8a:	685b      	ldr	r3, [r3, #4]
 a8c:	430a      	orrs	r2, r1
 a8e:	60da      	str	r2, [r3, #12]
 a90:	687b      	ldr	r3, [r7, #4]
 a92:	685b      	ldr	r3, [r3, #4]
 a94:	69db      	ldr	r3, [r3, #28]
 a96:	687a      	ldr	r2, [r7, #4]
 a98:	7b12      	ldrb	r2, [r2, #12]
 a9a:	0011      	movs	r1, r2
 a9c:	2201      	movs	r2, #1
 a9e:	408a      	lsls	r2, r1
 aa0:	43d2      	mvns	r2, r2
 aa2:	401a      	ands	r2, r3
 aa4:	003b      	movs	r3, r7
 aa6:	781b      	ldrb	r3, [r3, #0]
 aa8:	075b      	lsls	r3, r3, #29
 aaa:	0fdb      	lsrs	r3, r3, #31
 aac:	b2db      	uxtb	r3, r3
 aae:	0019      	movs	r1, r3
 ab0:	687b      	ldr	r3, [r7, #4]
 ab2:	7b1b      	ldrb	r3, [r3, #12]
 ab4:	4099      	lsls	r1, r3
 ab6:	000b      	movs	r3, r1
 ab8:	0019      	movs	r1, r3
 aba:	687b      	ldr	r3, [r7, #4]
 abc:	685b      	ldr	r3, [r3, #4]
 abe:	430a      	orrs	r2, r1
 ac0:	61da      	str	r2, [r3, #28]
 ac2:	687b      	ldr	r3, [r7, #4]
 ac4:	685b      	ldr	r3, [r3, #4]
 ac6:	6a1b      	ldr	r3, [r3, #32]
 ac8:	687a      	ldr	r2, [r7, #4]
 aca:	7b12      	ldrb	r2, [r2, #12]
 acc:	0011      	movs	r1, r2
 ace:	2201      	movs	r2, #1
 ad0:	408a      	lsls	r2, r1
 ad2:	43d2      	mvns	r2, r2
 ad4:	401a      	ands	r2, r3
 ad6:	003b      	movs	r3, r7
 ad8:	781b      	ldrb	r3, [r3, #0]
 ada:	071b      	lsls	r3, r3, #28
 adc:	0fdb      	lsrs	r3, r3, #31
 ade:	b2db      	uxtb	r3, r3
 ae0:	0019      	movs	r1, r3
 ae2:	687b      	ldr	r3, [r7, #4]
 ae4:	7b1b      	ldrb	r3, [r3, #12]
 ae6:	4099      	lsls	r1, r3
 ae8:	000b      	movs	r3, r1
 aea:	0019      	movs	r1, r3
 aec:	687b      	ldr	r3, [r7, #4]
 aee:	685b      	ldr	r3, [r3, #4]
 af0:	430a      	orrs	r2, r1
 af2:	621a      	str	r2, [r3, #32]
 af4:	687b      	ldr	r3, [r7, #4]
 af6:	685b      	ldr	r3, [r3, #4]
 af8:	6a5b      	ldr	r3, [r3, #36]	; 0x24
 afa:	687a      	ldr	r2, [r7, #4]
 afc:	7b12      	ldrb	r2, [r2, #12]
 afe:	0011      	movs	r1, r2
 b00:	2201      	movs	r2, #1
 b02:	408a      	lsls	r2, r1
 b04:	43d2      	mvns	r2, r2
 b06:	401a      	ands	r2, r3
 b08:	003b      	movs	r3, r7
 b0a:	781b      	ldrb	r3, [r3, #0]
 b0c:	06db      	lsls	r3, r3, #27
 b0e:	0fdb      	lsrs	r3, r3, #31
 b10:	b2db      	uxtb	r3, r3
 b12:	0019      	movs	r1, r3
 b14:	687b      	ldr	r3, [r7, #4]
 b16:	7b1b      	ldrb	r3, [r3, #12]
 b18:	4099      	lsls	r1, r3
 b1a:	000b      	movs	r3, r1
 b1c:	0019      	movs	r1, r3
 b1e:	687b      	ldr	r3, [r7, #4]
 b20:	685b      	ldr	r3, [r3, #4]
 b22:	430a      	orrs	r2, r1
 b24:	625a      	str	r2, [r3, #36]	; 0x24
 b26:	687b      	ldr	r3, [r7, #4]
 b28:	685b      	ldr	r3, [r3, #4]
 b2a:	6adb      	ldr	r3, [r3, #44]	; 0x2c
 b2c:	687a      	ldr	r2, [r7, #4]
 b2e:	7b12      	ldrb	r2, [r2, #12]
 b30:	0011      	movs	r1, r2
 b32:	2201      	movs	r2, #1
 b34:	408a      	lsls	r2, r1
 b36:	43d2      	mvns	r2, r2
 b38:	401a      	ands	r2, r3
 b3a:	003b      	movs	r3, r7
 b3c:	781b      	ldrb	r3, [r3, #0]
 b3e:	069b      	lsls	r3, r3, #26
 b40:	0fdb      	lsrs	r3, r3, #31
 b42:	b2db      	uxtb	r3, r3
 b44:	0019      	movs	r1, r3
 b46:	687b      	ldr	r3, [r7, #4]
 b48:	7b1b      	ldrb	r3, [r3, #12]
 b4a:	4099      	lsls	r1, r3
 b4c:	000b      	movs	r3, r1
 b4e:	0019      	movs	r1, r3
 b50:	687b      	ldr	r3, [r7, #4]
 b52:	685b      	ldr	r3, [r3, #4]
 b54:	430a      	orrs	r2, r1
 b56:	62da      	str	r2, [r3, #44]	; 0x2c
 b58:	003b      	movs	r3, r7
 b5a:	785b      	ldrb	r3, [r3, #1]
 b5c:	075b      	lsls	r3, r3, #29
 b5e:	0f5b      	lsrs	r3, r3, #29
 b60:	b2da      	uxtb	r2, r3
 b62:	687b      	ldr	r3, [r7, #4]
 b64:	681b      	ldr	r3, [r3, #0]
 b66:	601a      	str	r2, [r3, #0]
 b68:	687b      	ldr	r3, [r7, #4]
 b6a:	200e      	movs	r0, #14
 b6c:	5618      	ldrsb	r0, [r3, r0]
 b6e:	003b      	movs	r3, r7
 b70:	785b      	ldrb	r3, [r3, #1]
 b72:	071b      	lsls	r3, r3, #28
 b74:	0fdb      	lsrs	r3, r3, #31
 b76:	b2db      	uxtb	r3, r3
 b78:	001a      	movs	r2, r3
 b7a:	2103      	movs	r1, #3
 b7c:	f7ff fdfc 	bl	778 <nvic_configure_interrupt>
 b80:	46c0      	nop			; (mov r8, r8)
 b82:	46bd      	mov	sp, r7
 b84:	b002      	add	sp, #8
 b86:	bd80      	pop	{r7, pc}

00000b88 <gpio_digital_read>:
 b88:	b580      	push	{r7, lr}
 b8a:	b082      	sub	sp, #8
 b8c:	af00      	add	r7, sp, #0
 b8e:	6078      	str	r0, [r7, #4]
 b90:	687b      	ldr	r3, [r7, #4]
 b92:	685b      	ldr	r3, [r3, #4]
 b94:	685b      	ldr	r3, [r3, #4]
 b96:	687a      	ldr	r2, [r7, #4]
 b98:	7b12      	ldrb	r2, [r2, #12]
 b9a:	40d3      	lsrs	r3, r2
 b9c:	b2db      	uxtb	r3, r3
 b9e:	2201      	movs	r2, #1
 ba0:	4013      	ands	r3, r2
 ba2:	b2db      	uxtb	r3, r3
 ba4:	0018      	movs	r0, r3
 ba6:	46bd      	mov	sp, r7
 ba8:	b002      	add	sp, #8
 baa:	bd80      	pop	{r7, pc}

00000bac <gpio_digital_write>:
 bac:	b580      	push	{r7, lr}
 bae:	b082      	sub	sp, #8
 bb0:	af00      	add	r7, sp, #0
 bb2:	6078      	str	r0, [r7, #4]
 bb4:	000a      	movs	r2, r1
 bb6:	1cfb      	adds	r3, r7, #3
 bb8:	701a      	strb	r2, [r3, #0]
 bba:	687b      	ldr	r3, [r7, #4]
 bbc:	685b      	ldr	r3, [r3, #4]
 bbe:	689b      	ldr	r3, [r3, #8]
 bc0:	687a      	ldr	r2, [r7, #4]
 bc2:	7b12      	ldrb	r2, [r2, #12]
 bc4:	0011      	movs	r1, r2
 bc6:	2201      	movs	r2, #1
 bc8:	408a      	lsls	r2, r1
 bca:	43d2      	mvns	r2, r2
 bcc:	401a      	ands	r2, r3
 bce:	1cfb      	adds	r3, r7, #3
 bd0:	781b      	ldrb	r3, [r3, #0]
 bd2:	6879      	ldr	r1, [r7, #4]
 bd4:	7b09      	ldrb	r1, [r1, #12]
 bd6:	408b      	lsls	r3, r1
 bd8:	0019      	movs	r1, r3
 bda:	687b      	ldr	r3, [r7, #4]
 bdc:	685b      	ldr	r3, [r3, #4]
 bde:	430a      	orrs	r2, r1
 be0:	609a      	str	r2, [r3, #8]
 be2:	46c0      	nop			; (mov r8, r8)
 be4:	46bd      	mov	sp, r7
 be6:	b002      	add	sp, #8
 be8:	bd80      	pop	{r7, pc}

00000bea <gpio_clear_interrupt>:
 bea:	b580      	push	{r7, lr}
 bec:	b082      	sub	sp, #8
 bee:	af00      	add	r7, sp, #0
 bf0:	6078      	str	r0, [r7, #4]
 bf2:	687b      	ldr	r3, [r7, #4]
 bf4:	689b      	ldr	r3, [r3, #8]
 bf6:	691a      	ldr	r2, [r3, #16]
 bf8:	687b      	ldr	r3, [r7, #4]
 bfa:	7b1b      	ldrb	r3, [r3, #12]
 bfc:	0019      	movs	r1, r3
 bfe:	2301      	movs	r3, #1
 c00:	408b      	lsls	r3, r1
 c02:	43db      	mvns	r3, r3
 c04:	0019      	movs	r1, r3
 c06:	687b      	ldr	r3, [r7, #4]
 c08:	689b      	ldr	r3, [r3, #8]
 c0a:	400a      	ands	r2, r1
 c0c:	611a      	str	r2, [r3, #16]
 c0e:	46c0      	nop			; (mov r8, r8)
 c10:	46bd      	mov	sp, r7
 c12:	b002      	add	sp, #8
 c14:	bd80      	pop	{r7, pc}
	...

00000c18 <gpio_set_interrupt_handler>:
 c18:	b580      	push	{r7, lr}
 c1a:	b084      	sub	sp, #16
 c1c:	af00      	add	r7, sp, #0
 c1e:	60f8      	str	r0, [r7, #12]
 c20:	2008      	movs	r0, #8
 c22:	183b      	adds	r3, r7, r0
 c24:	7019      	strb	r1, [r3, #0]
 c26:	607a      	str	r2, [r7, #4]
 c28:	0001      	movs	r1, r0
 c2a:	187b      	adds	r3, r7, r1
 c2c:	781b      	ldrb	r3, [r3, #0]
 c2e:	079b      	lsls	r3, r3, #30
 c30:	0fdb      	lsrs	r3, r3, #31
 c32:	b2da      	uxtb	r2, r3
 c34:	68fb      	ldr	r3, [r7, #12]
 c36:	685b      	ldr	r3, [r3, #4]
 c38:	631a      	str	r2, [r3, #48]	; 0x30
 c3a:	187b      	adds	r3, r7, r1
 c3c:	781b      	ldrb	r3, [r3, #0]
 c3e:	075b      	lsls	r3, r3, #29
 c40:	0fdb      	lsrs	r3, r3, #31
 c42:	b2da      	uxtb	r2, r3
 c44:	68fb      	ldr	r3, [r7, #12]
 c46:	685b      	ldr	r3, [r3, #4]
 c48:	635a      	str	r2, [r3, #52]	; 0x34
 c4a:	187b      	adds	r3, r7, r1
 c4c:	781b      	ldrb	r3, [r3, #0]
 c4e:	071b      	lsls	r3, r3, #28
 c50:	0fdb      	lsrs	r3, r3, #31
 c52:	b2da      	uxtb	r2, r3
 c54:	68fb      	ldr	r3, [r7, #12]
 c56:	685b      	ldr	r3, [r3, #4]
 c58:	639a      	str	r2, [r3, #56]	; 0x38
 c5a:	187b      	adds	r3, r7, r1
 c5c:	781b      	ldrb	r3, [r3, #0]
 c5e:	06db      	lsls	r3, r3, #27
 c60:	0fdb      	lsrs	r3, r3, #31
 c62:	b2da      	uxtb	r2, r3
 c64:	68fb      	ldr	r3, [r7, #12]
 c66:	685b      	ldr	r3, [r3, #4]
 c68:	63da      	str	r2, [r3, #60]	; 0x3c
 c6a:	68fb      	ldr	r3, [r7, #12]
 c6c:	7b5b      	ldrb	r3, [r3, #13]
 c6e:	001a      	movs	r2, r3
 c70:	4b03      	ldr	r3, [pc, #12]	; (c80 <gpio_set_interrupt_handler+0x68>)
 c72:	0092      	lsls	r2, r2, #2
 c74:	6879      	ldr	r1, [r7, #4]
 c76:	50d1      	str	r1, [r2, r3]
 c78:	46c0      	nop			; (mov r8, r8)
 c7a:	46bd      	mov	sp, r7
 c7c:	b004      	add	sp, #16
 c7e:	bd80      	pop	{r7, pc}
 c80:	20000014 	.word	0x20000014

00000c84 <__handle_gpio_interrupt>:
 c84:	b580      	push	{r7, lr}
 c86:	b084      	sub	sp, #16
 c88:	af00      	add	r7, sp, #0
 c8a:	6078      	str	r0, [r7, #4]
 c8c:	6039      	str	r1, [r7, #0]
 c8e:	687b      	ldr	r3, [r7, #4]
 c90:	60fb      	str	r3, [r7, #12]
 c92:	e03e      	b.n	d12 <__handle_gpio_interrupt+0x8e>
 c94:	4a23      	ldr	r2, [pc, #140]	; (d24 <__handle_gpio_interrupt+0xa0>)
 c96:	68fb      	ldr	r3, [r7, #12]
 c98:	011b      	lsls	r3, r3, #4
 c9a:	18d3      	adds	r3, r2, r3
 c9c:	3308      	adds	r3, #8
 c9e:	681b      	ldr	r3, [r3, #0]
 ca0:	681b      	ldr	r3, [r3, #0]
 ca2:	4920      	ldr	r1, [pc, #128]	; (d24 <__handle_gpio_interrupt+0xa0>)
 ca4:	68fa      	ldr	r2, [r7, #12]
 ca6:	0112      	lsls	r2, r2, #4
 ca8:	188a      	adds	r2, r1, r2
 caa:	320c      	adds	r2, #12
 cac:	7812      	ldrb	r2, [r2, #0]
 cae:	0011      	movs	r1, r2
 cb0:	2201      	movs	r2, #1
 cb2:	408a      	lsls	r2, r1
 cb4:	4013      	ands	r3, r2
 cb6:	d029      	beq.n	d0c <__handle_gpio_interrupt+0x88>
 cb8:	4b1b      	ldr	r3, [pc, #108]	; (d28 <__handle_gpio_interrupt+0xa4>)
 cba:	68fa      	ldr	r2, [r7, #12]
 cbc:	0092      	lsls	r2, r2, #2
 cbe:	58d3      	ldr	r3, [r2, r3]
 cc0:	2b00      	cmp	r3, #0
 cc2:	d009      	beq.n	cd8 <__handle_gpio_interrupt+0x54>
 cc4:	4b18      	ldr	r3, [pc, #96]	; (d28 <__handle_gpio_interrupt+0xa4>)
 cc6:	68fa      	ldr	r2, [r7, #12]
 cc8:	0092      	lsls	r2, r2, #2
 cca:	58d3      	ldr	r3, [r2, r3]
 ccc:	68fa      	ldr	r2, [r7, #12]
 cce:	0111      	lsls	r1, r2, #4
 cd0:	4a14      	ldr	r2, [pc, #80]	; (d24 <__handle_gpio_interrupt+0xa0>)
 cd2:	188a      	adds	r2, r1, r2
 cd4:	0010      	movs	r0, r2
 cd6:	4798      	blx	r3
 cd8:	4a12      	ldr	r2, [pc, #72]	; (d24 <__handle_gpio_interrupt+0xa0>)
 cda:	68fb      	ldr	r3, [r7, #12]
 cdc:	011b      	lsls	r3, r3, #4
 cde:	18d3      	adds	r3, r2, r3
 ce0:	3308      	adds	r3, #8
 ce2:	681b      	ldr	r3, [r3, #0]
 ce4:	691a      	ldr	r2, [r3, #16]
 ce6:	490f      	ldr	r1, [pc, #60]	; (d24 <__handle_gpio_interrupt+0xa0>)
 ce8:	68fb      	ldr	r3, [r7, #12]
 cea:	011b      	lsls	r3, r3, #4
 cec:	18cb      	adds	r3, r1, r3
 cee:	330c      	adds	r3, #12
 cf0:	781b      	ldrb	r3, [r3, #0]
 cf2:	0019      	movs	r1, r3
 cf4:	2301      	movs	r3, #1
 cf6:	408b      	lsls	r3, r1
 cf8:	43db      	mvns	r3, r3
 cfa:	0018      	movs	r0, r3
 cfc:	4909      	ldr	r1, [pc, #36]	; (d24 <__handle_gpio_interrupt+0xa0>)
 cfe:	68fb      	ldr	r3, [r7, #12]
 d00:	011b      	lsls	r3, r3, #4
 d02:	18cb      	adds	r3, r1, r3
 d04:	3308      	adds	r3, #8
 d06:	681b      	ldr	r3, [r3, #0]
 d08:	4002      	ands	r2, r0
 d0a:	611a      	str	r2, [r3, #16]
 d0c:	68fb      	ldr	r3, [r7, #12]
 d0e:	3301      	adds	r3, #1
 d10:	60fb      	str	r3, [r7, #12]
 d12:	68fa      	ldr	r2, [r7, #12]
 d14:	683b      	ldr	r3, [r7, #0]
 d16:	429a      	cmp	r2, r3
 d18:	d9bc      	bls.n	c94 <__handle_gpio_interrupt+0x10>
 d1a:	46c0      	nop			; (mov r8, r8)
 d1c:	46c0      	nop			; (mov r8, r8)
 d1e:	46bd      	mov	sp, r7
 d20:	b004      	add	sp, #16
 d22:	bd80      	pop	{r7, pc}
 d24:	00000ea0 	.word	0x00000ea0
 d28:	20000014 	.word	0x20000014

00000d2c <peripheral_enable_gpio>:
 d2c:	b580      	push	{r7, lr}
 d2e:	af00      	add	r7, sp, #0
 d30:	4b11      	ldr	r3, [pc, #68]	; (d78 <peripheral_enable_gpio+0x4c>)
 d32:	22ff      	movs	r2, #255	; 0xff
 d34:	601a      	str	r2, [r3, #0]
 d36:	4b11      	ldr	r3, [pc, #68]	; (d7c <peripheral_enable_gpio+0x50>)
 d38:	22ff      	movs	r2, #255	; 0xff
 d3a:	601a      	str	r2, [r3, #0]
 d3c:	4b10      	ldr	r3, [pc, #64]	; (d80 <peripheral_enable_gpio+0x54>)
 d3e:	22ff      	movs	r2, #255	; 0xff
 d40:	601a      	str	r2, [r3, #0]
 d42:	4b10      	ldr	r3, [pc, #64]	; (d84 <peripheral_enable_gpio+0x58>)
 d44:	22ff      	movs	r2, #255	; 0xff
 d46:	601a      	str	r2, [r3, #0]
 d48:	4b0b      	ldr	r3, [pc, #44]	; (d78 <peripheral_enable_gpio+0x4c>)
 d4a:	2200      	movs	r2, #0
 d4c:	62da      	str	r2, [r3, #44]	; 0x2c
 d4e:	4b0b      	ldr	r3, [pc, #44]	; (d7c <peripheral_enable_gpio+0x50>)
 d50:	2200      	movs	r2, #0
 d52:	62da      	str	r2, [r3, #44]	; 0x2c
 d54:	4b0a      	ldr	r3, [pc, #40]	; (d80 <peripheral_enable_gpio+0x54>)
 d56:	2200      	movs	r2, #0
 d58:	62da      	str	r2, [r3, #44]	; 0x2c
 d5a:	4b0a      	ldr	r3, [pc, #40]	; (d84 <peripheral_enable_gpio+0x58>)
 d5c:	2200      	movs	r2, #0
 d5e:	62da      	str	r2, [r3, #44]	; 0x2c
 d60:	f7ff fcd0 	bl	704 <peripheral_get_enabled>
 d64:	0002      	movs	r2, r0
 d66:	2380      	movs	r3, #128	; 0x80
 d68:	055b      	lsls	r3, r3, #21
 d6a:	4313      	orrs	r3, r2
 d6c:	0018      	movs	r0, r3
 d6e:	f7ff fcbb 	bl	6e8 <peripheral_set_enabled>
 d72:	46c0      	nop			; (mov r8, r8)
 d74:	46bd      	mov	sp, r7
 d76:	bd80      	pop	{r7, pc}
 d78:	40020d00 	.word	0x40020d00
 d7c:	40020d40 	.word	0x40020d40
 d80:	40020d80 	.word	0x40020d80
 d84:	40020dc0 	.word	0x40020dc0

00000d88 <__udivsi3>:
 d88:	2200      	movs	r2, #0
 d8a:	0843      	lsrs	r3, r0, #1
 d8c:	428b      	cmp	r3, r1
 d8e:	d374      	bcc.n	e7a <__udivsi3+0xf2>
 d90:	0903      	lsrs	r3, r0, #4
 d92:	428b      	cmp	r3, r1
 d94:	d35f      	bcc.n	e56 <__udivsi3+0xce>
 d96:	0a03      	lsrs	r3, r0, #8
 d98:	428b      	cmp	r3, r1
 d9a:	d344      	bcc.n	e26 <__udivsi3+0x9e>
 d9c:	0b03      	lsrs	r3, r0, #12
 d9e:	428b      	cmp	r3, r1
 da0:	d328      	bcc.n	df4 <__udivsi3+0x6c>
 da2:	0c03      	lsrs	r3, r0, #16
 da4:	428b      	cmp	r3, r1
 da6:	d30d      	bcc.n	dc4 <__udivsi3+0x3c>
 da8:	22ff      	movs	r2, #255	; 0xff
 daa:	0209      	lsls	r1, r1, #8
 dac:	ba12      	rev	r2, r2
 dae:	0c03      	lsrs	r3, r0, #16
 db0:	428b      	cmp	r3, r1
 db2:	d302      	bcc.n	dba <__udivsi3+0x32>
 db4:	1212      	asrs	r2, r2, #8
 db6:	0209      	lsls	r1, r1, #8
 db8:	d065      	beq.n	e86 <__udivsi3+0xfe>
 dba:	0b03      	lsrs	r3, r0, #12
 dbc:	428b      	cmp	r3, r1
 dbe:	d319      	bcc.n	df4 <__udivsi3+0x6c>
 dc0:	e000      	b.n	dc4 <__udivsi3+0x3c>
 dc2:	0a09      	lsrs	r1, r1, #8
 dc4:	0bc3      	lsrs	r3, r0, #15
 dc6:	428b      	cmp	r3, r1
 dc8:	d301      	bcc.n	dce <__udivsi3+0x46>
 dca:	03cb      	lsls	r3, r1, #15
 dcc:	1ac0      	subs	r0, r0, r3
 dce:	4152      	adcs	r2, r2
 dd0:	0b83      	lsrs	r3, r0, #14
 dd2:	428b      	cmp	r3, r1
 dd4:	d301      	bcc.n	dda <__udivsi3+0x52>
 dd6:	038b      	lsls	r3, r1, #14
 dd8:	1ac0      	subs	r0, r0, r3
 dda:	4152      	adcs	r2, r2
 ddc:	0b43      	lsrs	r3, r0, #13
 dde:	428b      	cmp	r3, r1
 de0:	d301      	bcc.n	de6 <__udivsi3+0x5e>
 de2:	034b      	lsls	r3, r1, #13
 de4:	1ac0      	subs	r0, r0, r3
 de6:	4152      	adcs	r2, r2
 de8:	0b03      	lsrs	r3, r0, #12
 dea:	428b      	cmp	r3, r1
 dec:	d301      	bcc.n	df2 <__udivsi3+0x6a>
 dee:	030b      	lsls	r3, r1, #12
 df0:	1ac0      	subs	r0, r0, r3
 df2:	4152      	adcs	r2, r2
 df4:	0ac3      	lsrs	r3, r0, #11
 df6:	428b      	cmp	r3, r1
 df8:	d301      	bcc.n	dfe <__udivsi3+0x76>
 dfa:	02cb      	lsls	r3, r1, #11
 dfc:	1ac0      	subs	r0, r0, r3
 dfe:	4152      	adcs	r2, r2
 e00:	0a83      	lsrs	r3, r0, #10
 e02:	428b      	cmp	r3, r1
 e04:	d301      	bcc.n	e0a <__udivsi3+0x82>
 e06:	028b      	lsls	r3, r1, #10
 e08:	1ac0      	subs	r0, r0, r3
 e0a:	4152      	adcs	r2, r2
 e0c:	0a43      	lsrs	r3, r0, #9
 e0e:	428b      	cmp	r3, r1
 e10:	d301      	bcc.n	e16 <__udivsi3+0x8e>
 e12:	024b      	lsls	r3, r1, #9
 e14:	1ac0      	subs	r0, r0, r3
 e16:	4152      	adcs	r2, r2
 e18:	0a03      	lsrs	r3, r0, #8
 e1a:	428b      	cmp	r3, r1
 e1c:	d301      	bcc.n	e22 <__udivsi3+0x9a>
 e1e:	020b      	lsls	r3, r1, #8
 e20:	1ac0      	subs	r0, r0, r3
 e22:	4152      	adcs	r2, r2
 e24:	d2cd      	bcs.n	dc2 <__udivsi3+0x3a>
 e26:	09c3      	lsrs	r3, r0, #7
 e28:	428b      	cmp	r3, r1
 e2a:	d301      	bcc.n	e30 <__udivsi3+0xa8>
 e2c:	01cb      	lsls	r3, r1, #7
 e2e:	1ac0      	subs	r0, r0, r3
 e30:	4152      	adcs	r2, r2
 e32:	0983      	lsrs	r3, r0, #6
 e34:	428b      	cmp	r3, r1
 e36:	d301      	bcc.n	e3c <__udivsi3+0xb4>
 e38:	018b      	lsls	r3, r1, #6
 e3a:	1ac0      	subs	r0, r0, r3
 e3c:	4152      	adcs	r2, r2
 e3e:	0943      	lsrs	r3, r0, #5
 e40:	428b      	cmp	r3, r1
 e42:	d301      	bcc.n	e48 <__udivsi3+0xc0>
 e44:	014b      	lsls	r3, r1, #5
 e46:	1ac0      	subs	r0, r0, r3
 e48:	4152      	adcs	r2, r2
 e4a:	0903      	lsrs	r3, r0, #4
 e4c:	428b      	cmp	r3, r1
 e4e:	d301      	bcc.n	e54 <__udivsi3+0xcc>
 e50:	010b      	lsls	r3, r1, #4
 e52:	1ac0      	subs	r0, r0, r3
 e54:	4152      	adcs	r2, r2
 e56:	08c3      	lsrs	r3, r0, #3
 e58:	428b      	cmp	r3, r1
 e5a:	d301      	bcc.n	e60 <__udivsi3+0xd8>
 e5c:	00cb      	lsls	r3, r1, #3
 e5e:	1ac0      	subs	r0, r0, r3
 e60:	4152      	adcs	r2, r2
 e62:	0883      	lsrs	r3, r0, #2
 e64:	428b      	cmp	r3, r1
 e66:	d301      	bcc.n	e6c <__udivsi3+0xe4>
 e68:	008b      	lsls	r3, r1, #2
 e6a:	1ac0      	subs	r0, r0, r3
 e6c:	4152      	adcs	r2, r2
 e6e:	0843      	lsrs	r3, r0, #1
 e70:	428b      	cmp	r3, r1
 e72:	d301      	bcc.n	e78 <__udivsi3+0xf0>
 e74:	004b      	lsls	r3, r1, #1
 e76:	1ac0      	subs	r0, r0, r3
 e78:	4152      	adcs	r2, r2
 e7a:	1a41      	subs	r1, r0, r1
 e7c:	d200      	bcs.n	e80 <__udivsi3+0xf8>
 e7e:	4601      	mov	r1, r0
 e80:	4152      	adcs	r2, r2
 e82:	4610      	mov	r0, r2
 e84:	4770      	bx	lr
 e86:	e7ff      	b.n	e88 <__udivsi3+0x100>
 e88:	b501      	push	{r0, lr}
 e8a:	2000      	movs	r0, #0
 e8c:	f000 f806 	bl	e9c <__aeabi_idiv0>
 e90:	bd02      	pop	{r1, pc}
 e92:	46c0      	nop			; (mov r8, r8)

00000e94 <__aeabi_uidivmod>:
 e94:	2900      	cmp	r1, #0
 e96:	d0f7      	beq.n	e88 <__udivsi3+0x100>
 e98:	e776      	b.n	d88 <__udivsi3>
 e9a:	4770      	bx	lr

00000e9c <__aeabi_idiv0>:
 e9c:	4770      	bx	lr
 e9e:	46c0      	nop			; (mov r8, r8)

00000ea0 <port_descriptors>:
 ea0:	0c04 4002 0d00 4002 0e00 4002 0001 0000     ...@...@...@....
 eb0:	0c08 4002 0d00 4002 0e00 4002 0102 0000     ...@...@...@....
 ec0:	0c0c 4002 0d00 4002 0e00 4002 0203 0000     ...@...@...@....
 ed0:	0c50 4002 0d40 4002 0e40 4002 0304 0001     P..@@..@@..@....
 ee0:	0c54 4002 0d40 4002 0e40 4002 0405 0001     T..@@..@@..@....
 ef0:	0c8c 4002 0d80 4002 0e80 4002 0503 0002     ...@...@...@....
 f00:	0c90 4002 0d80 4002 0e80 4002 0604 0002     ...@...@...@....
 f10:	0c94 4002 0d80 4002 0e80 4002 0705 0000     ...@...@...@....
 f20:	0c98 4002 0d80 4002 0e80 4002 0806 0002     ...@...@...@....
 f30:	0c9c 4002 0d80 4002 0e80 4002 0907 0002     ...@...@...@....
 f40:	0cc4 4002 0dc0 4002 0ec0 4002 0a01 0003     ...@...@...@....
 f50:	0cc8 4002 0dc0 4002 0ec0 4002 0b02 0003     ...@...@...@....
 f60:	0ccc 4002 0dc0 4002 0ec0 4002 0c03 0003     ...@...@...@....
 f70:	0cd0 4002 0dc0 4002 0ec0 4002 0d04 0003     ...@...@...@....
 f80:	0cd4 4002 0dc0 4002 0ec0 4002 0e05 0003     ...@...@...@....
 f90:	0cd8 4002 0dc0 4002 0ec0 4002 0f06 0003     ...@...@...@....

00000fa0 <gpio_digital_output>:
 fa0:	0008 0000                                   ....

00000fa4 <gpio_digital_input>:
 fa4:	0001                                        ..
