
blink.elf:     file format elf32-littlearm


Disassembly of section .text:

00000000 <vector_table>:
   0:	00 10 00 20 d5 00 00 00 a5 00 00 00 a5 00 00 00     ... ............
	...
  2c:	a5 00 00 00 00 00 00 00 00 00 00 00 a5 00 00 00     ................
  3c:	d5 06 00 00 a5 00 00 00 a5 00 00 00 a5 00 00 00     ................
  4c:	a5 00 00 00 a5 00 00 00 a5 00 00 00 a5 00 00 00     ................
  5c:	a5 00 00 00 a5 00 00 00 a5 00 00 00 a5 00 00 00     ................
  6c:	a5 00 00 00 a5 00 00 00 a5 00 00 00 a5 00 00 00     ................
  7c:	a5 00 00 00 a5 00 00 00 a5 00 00 00 a5 00 00 00     ................
  8c:	a5 00 00 00 a5 00 00 00 a5 00 00 00 a5 00 00 00     ................
  9c:	a5 00 00 00 a5 00 00 00                             ........

000000a4 <Dummy_Handler>:
  a4:	4770      	bx	lr
  a6:	46c0      	nop			; (mov r8, r8)

000000a8 <SystemInit>:
  a8:	4b05      	ldr	r3, [pc, #20]	; (c0 <SystemInit+0x18>)
  aa:	881a      	ldrh	r2, [r3, #0]
  ac:	4b05      	ldr	r3, [pc, #20]	; (c4 <SystemInit+0x1c>)
  ae:	601a      	str	r2, [r3, #0]
  b0:	2200      	movs	r2, #0
  b2:	4b05      	ldr	r3, [pc, #20]	; (c8 <SystemInit+0x20>)
  b4:	601a      	str	r2, [r3, #0]
  b6:	4b05      	ldr	r3, [pc, #20]	; (cc <SystemInit+0x24>)
  b8:	4a05      	ldr	r2, [pc, #20]	; (d0 <SystemInit+0x28>)
  ba:	601a      	str	r2, [r3, #0]
  bc:	4770      	bx	lr
  be:	46c0      	nop			; (mov r8, r8)
  c0:	00100c08 	.word	0x00100c08
  c4:	4000200c 	.word	0x4000200c
  c8:	40002000 	.word	0x40002000
  cc:	20000000 	.word	0x20000000
  d0:	003d0900 	.word	0x003d0900

000000d4 <Reset_Handler>:
  d4:	b5f8      	push	{r3, r4, r5, r6, r7, lr}
  d6:	4836      	ldr	r0, [pc, #216]	; (1b0 <Reset_Handler+0xdc>)
  d8:	4b36      	ldr	r3, [pc, #216]	; (1b4 <Reset_Handler+0xe0>)
  da:	4298      	cmp	r0, r3
  dc:	d21d      	bcs.n	11a <Reset_Handler+0x46>
  de:	4936      	ldr	r1, [pc, #216]	; (1b8 <Reset_Handler+0xe4>)
  e0:	3b01      	subs	r3, #1
  e2:	000a      	movs	r2, r1
  e4:	4302      	orrs	r2, r0
  e6:	0006      	movs	r6, r0
  e8:	1a1b      	subs	r3, r3, r0
  ea:	0752      	lsls	r2, r2, #29
  ec:	d156      	bne.n	19c <Reset_Handler+0xc8>
  ee:	2b2b      	cmp	r3, #43	; 0x2b
  f0:	d954      	bls.n	19c <Reset_Handler+0xc8>
  f2:	089a      	lsrs	r2, r3, #2
  f4:	000b      	movs	r3, r1
  f6:	3201      	adds	r2, #1
  f8:	0857      	lsrs	r7, r2, #1
  fa:	00ff      	lsls	r7, r7, #3
  fc:	19cf      	adds	r7, r1, r7
  fe:	cb30      	ldmia	r3!, {r4, r5}
 100:	c630      	stmia	r6!, {r4, r5}
 102:	42bb      	cmp	r3, r7
 104:	d1fb      	bne.n	fe <Reset_Handler+0x2a>
 106:	2301      	movs	r3, #1
 108:	0014      	movs	r4, r2
 10a:	439c      	bics	r4, r3
 10c:	00a3      	lsls	r3, r4, #2
 10e:	18c9      	adds	r1, r1, r3
 110:	18c0      	adds	r0, r0, r3
 112:	42a2      	cmp	r2, r4
 114:	d001      	beq.n	11a <Reset_Handler+0x46>
 116:	680b      	ldr	r3, [r1, #0]
 118:	6003      	str	r3, [r0, #0]
 11a:	4b28      	ldr	r3, [pc, #160]	; (1bc <Reset_Handler+0xe8>)
 11c:	4e28      	ldr	r6, [pc, #160]	; (1c0 <Reset_Handler+0xec>)
 11e:	42b3      	cmp	r3, r6
 120:	d236      	bcs.n	190 <Reset_Handler+0xbc>
 122:	1e71      	subs	r1, r6, #1
 124:	1ac9      	subs	r1, r1, r3
 126:	0888      	lsrs	r0, r1, #2
 128:	075a      	lsls	r2, r3, #29
 12a:	3001      	adds	r0, #1
 12c:	0fd2      	lsrs	r2, r2, #31
 12e:	2917      	cmp	r1, #23
 130:	d917      	bls.n	162 <Reset_Handler+0x8e>
 132:	0019      	movs	r1, r3
 134:	2a00      	cmp	r2, #0
 136:	d002      	beq.n	13e <Reset_Handler+0x6a>
 138:	2100      	movs	r1, #0
 13a:	6019      	str	r1, [r3, #0]
 13c:	4921      	ldr	r1, [pc, #132]	; (1c4 <Reset_Handler+0xf0>)
 13e:	2400      	movs	r4, #0
 140:	2500      	movs	r5, #0
 142:	1a80      	subs	r0, r0, r2
 144:	0092      	lsls	r2, r2, #2
 146:	189b      	adds	r3, r3, r2
 148:	0842      	lsrs	r2, r0, #1
 14a:	00d2      	lsls	r2, r2, #3
 14c:	18d2      	adds	r2, r2, r3
 14e:	c330      	stmia	r3!, {r4, r5}
 150:	4293      	cmp	r3, r2
 152:	d1fc      	bne.n	14e <Reset_Handler+0x7a>
 154:	2301      	movs	r3, #1
 156:	0002      	movs	r2, r0
 158:	439a      	bics	r2, r3
 15a:	0093      	lsls	r3, r2, #2
 15c:	18cb      	adds	r3, r1, r3
 15e:	4290      	cmp	r0, r2
 160:	d016      	beq.n	190 <Reset_Handler+0xbc>
 162:	2200      	movs	r2, #0
 164:	0019      	movs	r1, r3
 166:	c104      	stmia	r1!, {r2}
 168:	42b1      	cmp	r1, r6
 16a:	d211      	bcs.n	190 <Reset_Handler+0xbc>
 16c:	0019      	movs	r1, r3
 16e:	3108      	adds	r1, #8
 170:	605a      	str	r2, [r3, #4]
 172:	42b1      	cmp	r1, r6
 174:	d20c      	bcs.n	190 <Reset_Handler+0xbc>
 176:	3104      	adds	r1, #4
 178:	609a      	str	r2, [r3, #8]
 17a:	42b1      	cmp	r1, r6
 17c:	d208      	bcs.n	190 <Reset_Handler+0xbc>
 17e:	3104      	adds	r1, #4
 180:	60da      	str	r2, [r3, #12]
 182:	42b1      	cmp	r1, r6
 184:	d204      	bcs.n	190 <Reset_Handler+0xbc>
 186:	3104      	adds	r1, #4
 188:	611a      	str	r2, [r3, #16]
 18a:	42b1      	cmp	r1, r6
 18c:	d200      	bcs.n	190 <Reset_Handler+0xbc>
 18e:	615a      	str	r2, [r3, #20]
 190:	f7ff ff8a 	bl	a8 <SystemInit>
 194:	f000 f818 	bl	1c8 <main>
 198:	bf30      	wfi
 19a:	e7fd      	b.n	198 <Reset_Handler+0xc4>
 19c:	2200      	movs	r2, #0
 19e:	089b      	lsrs	r3, r3, #2
 1a0:	3301      	adds	r3, #1
 1a2:	009b      	lsls	r3, r3, #2
 1a4:	588c      	ldr	r4, [r1, r2]
 1a6:	5084      	str	r4, [r0, r2]
 1a8:	3204      	adds	r2, #4
 1aa:	429a      	cmp	r2, r3
 1ac:	d1fa      	bne.n	1a4 <Reset_Handler+0xd0>
 1ae:	e7b4      	b.n	11a <Reset_Handler+0x46>
 1b0:	20000000 	.word	0x20000000
 1b4:	20000000 	.word	0x20000000
 1b8:	00000b5c 	.word	0x00000b5c
 1bc:	20000000 	.word	0x20000000
 1c0:	20000050 	.word	0x20000050
 1c4:	20000004 	.word	0x20000004

000001c8 <main>:
 1c8:	20fa      	movs	r0, #250	; 0xfa
 1ca:	b570      	push	{r4, r5, r6, lr}
 1cc:	0080      	lsls	r0, r0, #2
 1ce:	f000 fa3f 	bl	650 <core_enable_systick>
 1d2:	f000 fb93 	bl	8fc <peripheral_enable_gpio>
 1d6:	4c11      	ldr	r4, [pc, #68]	; (21c <main+0x54>)
 1d8:	4b11      	ldr	r3, [pc, #68]	; (220 <main+0x58>)
 1da:	0026      	movs	r6, r4
 1dc:	785d      	ldrb	r5, [r3, #1]
 1de:	781a      	ldrb	r2, [r3, #0]
 1e0:	022d      	lsls	r5, r5, #8
 1e2:	4315      	orrs	r5, r2
 1e4:	0029      	movs	r1, r5
 1e6:	0020      	movs	r0, r4
 1e8:	3e10      	subs	r6, #16
 1ea:	f000 fa7d 	bl	6e8 <gpio_configure>
 1ee:	0029      	movs	r1, r5
 1f0:	0030      	movs	r0, r6
 1f2:	f000 fa79 	bl	6e8 <gpio_configure>
 1f6:	2101      	movs	r1, #1
 1f8:	0030      	movs	r0, r6
 1fa:	f000 fab7 	bl	76c <gpio_digital_write>
 1fe:	20fa      	movs	r0, #250	; 0xfa
 200:	f000 f816 	bl	230 <systick_delay>
 204:	2100      	movs	r1, #0
 206:	0020      	movs	r0, r4
 208:	f000 fab0 	bl	76c <gpio_digital_write>
 20c:	20fa      	movs	r0, #250	; 0xfa
 20e:	f000 f80f 	bl	230 <systick_delay>
 212:	2101      	movs	r1, #1
 214:	0020      	movs	r0, r4
 216:	f000 faa9 	bl	76c <gpio_digital_write>
 21a:	e7f0      	b.n	1fe <main+0x36>
 21c:	00000a6c 	.word	0x00000a6c
 220:	00000a58 	.word	0x00000a58

00000224 <systick_current_value>:
 224:	4b01      	ldr	r3, [pc, #4]	; (22c <systick_current_value+0x8>)
 226:	6818      	ldr	r0, [r3, #0]
 228:	4770      	bx	lr
 22a:	46c0      	nop			; (mov r8, r8)
 22c:	20000008 	.word	0x20000008

00000230 <systick_delay>:
 230:	4b08      	ldr	r3, [pc, #32]	; (254 <systick_delay+0x24>)
 232:	681b      	ldr	r3, [r3, #0]
 234:	43db      	mvns	r3, r3
 236:	079b      	lsls	r3, r3, #30
 238:	d000      	beq.n	23c <systick_delay+0xc>
 23a:	4770      	bx	lr
 23c:	2300      	movs	r3, #0
 23e:	4a06      	ldr	r2, [pc, #24]	; (258 <systick_delay+0x28>)
 240:	6053      	str	r3, [r2, #4]
 242:	6853      	ldr	r3, [r2, #4]
 244:	4298      	cmp	r0, r3
 246:	d9f8      	bls.n	23a <systick_delay+0xa>
 248:	46c0      	nop			; (mov r8, r8)
 24a:	6853      	ldr	r3, [r2, #4]
 24c:	4283      	cmp	r3, r0
 24e:	d3fb      	bcc.n	248 <systick_delay+0x18>
 250:	e7f3      	b.n	23a <systick_delay+0xa>
 252:	46c0      	nop			; (mov r8, r8)
 254:	e000e010 	.word	0xe000e010
 258:	20000008 	.word	0x20000008

0000025c <core_set_system_clock>:
 25c:	b5f8      	push	{r3, r4, r5, r6, r7, lr}
 25e:	46ce      	mov	lr, r9
 260:	4647      	mov	r7, r8
 262:	000c      	movs	r4, r1
 264:	0016      	movs	r6, r2
 266:	4699      	mov	r9, r3
 268:	b580      	push	{r7, lr}
 26a:	2802      	cmp	r0, #2
 26c:	d100      	bne.n	270 <core_set_system_clock+0x14>
 26e:	e0c4      	b.n	3fa <core_set_system_clock+0x19e>
 270:	d82d      	bhi.n	2ce <core_set_system_clock+0x72>
 272:	2800      	cmp	r0, #0
 274:	d100      	bne.n	278 <core_set_system_clock+0x1c>
 276:	e078      	b.n	36a <core_set_system_clock+0x10e>
 278:	2230      	movs	r2, #48	; 0x30
 27a:	49d0      	ldr	r1, [pc, #832]	; (5bc <core_set_system_clock+0x360>)
 27c:	7c0b      	ldrb	r3, [r1, #16]
 27e:	4313      	orrs	r3, r2
 280:	2202      	movs	r2, #2
 282:	740b      	strb	r3, [r1, #16]
 284:	4bce      	ldr	r3, [pc, #824]	; (5c0 <core_set_system_clock+0x364>)
 286:	608b      	str	r3, [r1, #8]
 288:	4bce      	ldr	r3, [pc, #824]	; (5c4 <core_set_system_clock+0x368>)
 28a:	608b      	str	r3, [r1, #8]
 28c:	880b      	ldrh	r3, [r1, #0]
 28e:	4313      	orrs	r3, r2
 290:	800b      	strh	r3, [r1, #0]
 292:	690b      	ldr	r3, [r1, #16]
 294:	065b      	lsls	r3, r3, #25
 296:	d5fc      	bpl.n	292 <core_set_system_clock+0x36>
 298:	2730      	movs	r7, #48	; 0x30
 29a:	4ac9      	ldr	r2, [pc, #804]	; (5c0 <core_set_system_clock+0x364>)
 29c:	4bc9      	ldr	r3, [pc, #804]	; (5c4 <core_set_system_clock+0x368>)
 29e:	608a      	str	r2, [r1, #8]
 2a0:	608b      	str	r3, [r1, #8]
 2a2:	8808      	ldrh	r0, [r1, #0]
 2a4:	43b8      	bics	r0, r7
 2a6:	2710      	movs	r7, #16
 2a8:	4338      	orrs	r0, r7
 2aa:	2704      	movs	r7, #4
 2ac:	8008      	strh	r0, [r1, #0]
 2ae:	608a      	str	r2, [r1, #8]
 2b0:	608b      	str	r3, [r1, #8]
 2b2:	8808      	ldrh	r0, [r1, #0]
 2b4:	43b8      	bics	r0, r7
 2b6:	8008      	strh	r0, [r1, #0]
 2b8:	608a      	str	r2, [r1, #8]
 2ba:	608b      	str	r3, [r1, #8]
 2bc:	8808      	ldrh	r0, [r1, #0]
 2be:	3f03      	subs	r7, #3
 2c0:	43b8      	bics	r0, r7
 2c2:	8008      	strh	r0, [r1, #0]
 2c4:	608a      	str	r2, [r1, #8]
 2c6:	608b      	str	r3, [r1, #8]
 2c8:	8808      	ldrh	r0, [r1, #0]
 2ca:	3707      	adds	r7, #7
 2cc:	e02b      	b.n	326 <core_set_system_clock+0xca>
 2ce:	2803      	cmp	r0, #3
 2d0:	d147      	bne.n	362 <core_set_system_clock+0x106>
 2d2:	2230      	movs	r2, #48	; 0x30
 2d4:	4bbc      	ldr	r3, [pc, #752]	; (5c8 <core_set_system_clock+0x36c>)
 2d6:	49b9      	ldr	r1, [pc, #740]	; (5bc <core_set_system_clock+0x360>)
 2d8:	60da      	str	r2, [r3, #12]
 2da:	7e0b      	ldrb	r3, [r1, #24]
 2dc:	4313      	orrs	r3, r2
 2de:	2208      	movs	r2, #8
 2e0:	760b      	strb	r3, [r1, #24]
 2e2:	4bb7      	ldr	r3, [pc, #732]	; (5c0 <core_set_system_clock+0x364>)
 2e4:	608b      	str	r3, [r1, #8]
 2e6:	4bb7      	ldr	r3, [pc, #732]	; (5c4 <core_set_system_clock+0x368>)
 2e8:	608b      	str	r3, [r1, #8]
 2ea:	880b      	ldrh	r3, [r1, #0]
 2ec:	4313      	orrs	r3, r2
 2ee:	800b      	strh	r3, [r1, #0]
 2f0:	698b      	ldr	r3, [r1, #24]
 2f2:	065b      	lsls	r3, r3, #25
 2f4:	d5fc      	bpl.n	2f0 <core_set_system_clock+0x94>
 2f6:	2730      	movs	r7, #48	; 0x30
 2f8:	4ab1      	ldr	r2, [pc, #708]	; (5c0 <core_set_system_clock+0x364>)
 2fa:	4bb2      	ldr	r3, [pc, #712]	; (5c4 <core_set_system_clock+0x368>)
 2fc:	608a      	str	r2, [r1, #8]
 2fe:	608b      	str	r3, [r1, #8]
 300:	8808      	ldrh	r0, [r1, #0]
 302:	4338      	orrs	r0, r7
 304:	2704      	movs	r7, #4
 306:	8008      	strh	r0, [r1, #0]
 308:	608a      	str	r2, [r1, #8]
 30a:	608b      	str	r3, [r1, #8]
 30c:	8808      	ldrh	r0, [r1, #0]
 30e:	43b8      	bics	r0, r7
 310:	8008      	strh	r0, [r1, #0]
 312:	608a      	str	r2, [r1, #8]
 314:	608b      	str	r3, [r1, #8]
 316:	8808      	ldrh	r0, [r1, #0]
 318:	3f03      	subs	r7, #3
 31a:	43b8      	bics	r0, r7
 31c:	8008      	strh	r0, [r1, #0]
 31e:	608a      	str	r2, [r1, #8]
 320:	608b      	str	r3, [r1, #8]
 322:	8808      	ldrh	r0, [r1, #0]
 324:	3701      	adds	r7, #1
 326:	43b8      	bics	r0, r7
 328:	8008      	strh	r0, [r1, #0]
 32a:	2007      	movs	r0, #7
 32c:	608a      	str	r2, [r1, #8]
 32e:	4030      	ands	r0, r6
 330:	608b      	str	r3, [r1, #8]
 332:	0187      	lsls	r7, r0, #6
 334:	4da5      	ldr	r5, [pc, #660]	; (5cc <core_set_system_clock+0x370>)
 336:	8808      	ldrh	r0, [r1, #0]
 338:	40f4      	lsrs	r4, r6
 33a:	4028      	ands	r0, r5
 33c:	4338      	orrs	r0, r7
 33e:	8008      	strh	r0, [r1, #0]
 340:	608a      	str	r2, [r1, #8]
 342:	608b      	str	r3, [r1, #8]
 344:	464a      	mov	r2, r9
 346:	2303      	movs	r3, #3
 348:	4013      	ands	r3, r2
 34a:	025a      	lsls	r2, r3, #9
 34c:	48a0      	ldr	r0, [pc, #640]	; (5d0 <core_set_system_clock+0x374>)
 34e:	880b      	ldrh	r3, [r1, #0]
 350:	4003      	ands	r3, r0
 352:	4313      	orrs	r3, r2
 354:	800b      	strh	r3, [r1, #0]
 356:	4b9f      	ldr	r3, [pc, #636]	; (5d4 <core_set_system_clock+0x378>)
 358:	601c      	str	r4, [r3, #0]
 35a:	464b      	mov	r3, r9
 35c:	40dc      	lsrs	r4, r3
 35e:	4b9e      	ldr	r3, [pc, #632]	; (5d8 <core_set_system_clock+0x37c>)
 360:	601c      	str	r4, [r3, #0]
 362:	bcc0      	pop	{r6, r7}
 364:	46b9      	mov	r9, r7
 366:	46b0      	mov	r8, r6
 368:	bdf8      	pop	{r3, r4, r5, r6, r7, pc}
 36a:	4b9c      	ldr	r3, [pc, #624]	; (5dc <core_set_system_clock+0x380>)
 36c:	4299      	cmp	r1, r3
 36e:	d800      	bhi.n	372 <core_set_system_clock+0x116>
 370:	e098      	b.n	4a4 <core_set_system_clock+0x248>
 372:	4b9b      	ldr	r3, [pc, #620]	; (5e0 <core_set_system_clock+0x384>)
 374:	2200      	movs	r2, #0
 376:	18cf      	adds	r7, r1, r3
 378:	4b9a      	ldr	r3, [pc, #616]	; (5e4 <core_set_system_clock+0x388>)
 37a:	429f      	cmp	r7, r3
 37c:	d900      	bls.n	380 <core_set_system_clock+0x124>
 37e:	e0a0      	b.n	4c2 <core_set_system_clock+0x266>
 380:	4999      	ldr	r1, [pc, #612]	; (5e8 <core_set_system_clock+0x38c>)
 382:	428c      	cmp	r4, r1
 384:	d100      	bne.n	388 <core_set_system_clock+0x12c>
 386:	e0e6      	b.n	556 <core_set_system_clock+0x2fa>
 388:	4b98      	ldr	r3, [pc, #608]	; (5ec <core_set_system_clock+0x390>)
 38a:	429c      	cmp	r4, r3
 38c:	d800      	bhi.n	390 <core_set_system_clock+0x134>
 38e:	e0ca      	b.n	526 <core_set_system_clock+0x2ca>
 390:	4997      	ldr	r1, [pc, #604]	; (5f0 <core_set_system_clock+0x394>)
 392:	428c      	cmp	r4, r1
 394:	d100      	bne.n	398 <core_set_system_clock+0x13c>
 396:	e0f9      	b.n	58c <core_set_system_clock+0x330>
 398:	4b96      	ldr	r3, [pc, #600]	; (5f4 <core_set_system_clock+0x398>)
 39a:	429c      	cmp	r4, r3
 39c:	d800      	bhi.n	3a0 <core_set_system_clock+0x144>
 39e:	e0e2      	b.n	566 <core_set_system_clock+0x30a>
 3a0:	4b95      	ldr	r3, [pc, #596]	; (5f8 <core_set_system_clock+0x39c>)
 3a2:	429c      	cmp	r4, r3
 3a4:	d100      	bne.n	3a8 <core_set_system_clock+0x14c>
 3a6:	e14f      	b.n	648 <core_set_system_clock+0x3ec>
 3a8:	4b94      	ldr	r3, [pc, #592]	; (5fc <core_set_system_clock+0x3a0>)
 3aa:	429c      	cmp	r4, r3
 3ac:	d800      	bhi.n	3b0 <core_set_system_clock+0x154>
 3ae:	e0ef      	b.n	590 <core_set_system_clock+0x334>
 3b0:	4b93      	ldr	r3, [pc, #588]	; (600 <core_set_system_clock+0x3a4>)
 3b2:	429c      	cmp	r4, r3
 3b4:	d100      	bne.n	3b8 <core_set_system_clock+0x15c>
 3b6:	e0ff      	b.n	5b8 <core_set_system_clock+0x35c>
 3b8:	4b92      	ldr	r3, [pc, #584]	; (604 <core_set_system_clock+0x3a8>)
 3ba:	429c      	cmp	r4, r3
 3bc:	d100      	bne.n	3c0 <core_set_system_clock+0x164>
 3be:	e0fb      	b.n	5b8 <core_set_system_clock+0x35c>
 3c0:	4b91      	ldr	r3, [pc, #580]	; (608 <core_set_system_clock+0x3ac>)
 3c2:	4992      	ldr	r1, [pc, #584]	; (60c <core_set_system_clock+0x3b0>)
 3c4:	881b      	ldrh	r3, [r3, #0]
 3c6:	015f      	lsls	r7, r3, #5
 3c8:	1aff      	subs	r7, r7, r3
 3ca:	00bf      	lsls	r7, r7, #2
 3cc:	18ff      	adds	r7, r7, r3
 3ce:	4b90      	ldr	r3, [pc, #576]	; (610 <core_set_system_clock+0x3b4>)
 3d0:	00ff      	lsls	r7, r7, #3
 3d2:	881b      	ldrh	r3, [r3, #0]
 3d4:	0158      	lsls	r0, r3, #5
 3d6:	1ac0      	subs	r0, r0, r3
 3d8:	0080      	lsls	r0, r0, #2
 3da:	18c0      	adds	r0, r0, r3
 3dc:	00c0      	lsls	r0, r0, #3
 3de:	1bc0      	subs	r0, r0, r7
 3e0:	f000 faac 	bl	93c <__udivsi3>
 3e4:	4b8b      	ldr	r3, [pc, #556]	; (614 <core_set_system_clock+0x3b8>)
 3e6:	18e3      	adds	r3, r4, r3
 3e8:	4358      	muls	r0, r3
 3ea:	19c0      	adds	r0, r0, r7
 3ec:	21fa      	movs	r1, #250	; 0xfa
 3ee:	0089      	lsls	r1, r1, #2
 3f0:	f000 faa4 	bl	93c <__udivsi3>
 3f4:	0542      	lsls	r2, r0, #21
 3f6:	0d52      	lsrs	r2, r2, #21
 3f8:	e063      	b.n	4c2 <core_set_system_clock+0x266>
 3fa:	4b87      	ldr	r3, [pc, #540]	; (618 <core_set_system_clock+0x3bc>)
 3fc:	4299      	cmp	r1, r3
 3fe:	d100      	bne.n	402 <core_set_system_clock+0x1a6>
 400:	e089      	b.n	516 <core_set_system_clock+0x2ba>
 402:	2396      	movs	r3, #150	; 0x96
 404:	021b      	lsls	r3, r3, #8
 406:	4299      	cmp	r1, r3
 408:	d100      	bne.n	40c <core_set_system_clock+0x1b0>
 40a:	e0a2      	b.n	552 <core_set_system_clock+0x2f6>
 40c:	4b83      	ldr	r3, [pc, #524]	; (61c <core_set_system_clock+0x3c0>)
 40e:	4984      	ldr	r1, [pc, #528]	; (620 <core_set_system_clock+0x3c4>)
 410:	18e3      	adds	r3, r4, r3
 412:	2200      	movs	r2, #0
 414:	428b      	cmp	r3, r1
 416:	d81a      	bhi.n	44e <core_set_system_clock+0x1f2>
 418:	4a82      	ldr	r2, [pc, #520]	; (624 <core_set_system_clock+0x3c8>)
 41a:	3102      	adds	r1, #2
 41c:	8810      	ldrh	r0, [r2, #0]
 41e:	0143      	lsls	r3, r0, #5
 420:	1a1b      	subs	r3, r3, r0
 422:	009f      	lsls	r7, r3, #2
 424:	183f      	adds	r7, r7, r0
 426:	8810      	ldrh	r0, [r2, #0]
 428:	00ff      	lsls	r7, r7, #3
 42a:	0142      	lsls	r2, r0, #5
 42c:	1a12      	subs	r2, r2, r0
 42e:	0093      	lsls	r3, r2, #2
 430:	181b      	adds	r3, r3, r0
 432:	00db      	lsls	r3, r3, #3
 434:	1bd8      	subs	r0, r3, r7
 436:	f000 fa81 	bl	93c <__udivsi3>
 43a:	21fa      	movs	r1, #250	; 0xfa
 43c:	4b7a      	ldr	r3, [pc, #488]	; (628 <core_set_system_clock+0x3cc>)
 43e:	0089      	lsls	r1, r1, #2
 440:	18e3      	adds	r3, r4, r3
 442:	4358      	muls	r0, r3
 444:	19c0      	adds	r0, r0, r7
 446:	f000 fa79 	bl	93c <__udivsi3>
 44a:	0582      	lsls	r2, r0, #22
 44c:	0d92      	lsrs	r2, r2, #22
 44e:	495b      	ldr	r1, [pc, #364]	; (5bc <core_set_system_clock+0x360>)
 450:	4f5b      	ldr	r7, [pc, #364]	; (5c0 <core_set_system_clock+0x364>)
 452:	485c      	ldr	r0, [pc, #368]	; (5c4 <core_set_system_clock+0x368>)
 454:	608f      	str	r7, [r1, #8]
 456:	6088      	str	r0, [r1, #8]
 458:	8a8b      	ldrh	r3, [r1, #20]
 45a:	0a9b      	lsrs	r3, r3, #10
 45c:	029b      	lsls	r3, r3, #10
 45e:	4313      	orrs	r3, r2
 460:	828b      	strh	r3, [r1, #20]
 462:	23c0      	movs	r3, #192	; 0xc0
 464:	8a8a      	ldrh	r2, [r1, #20]
 466:	011b      	lsls	r3, r3, #4
 468:	4313      	orrs	r3, r2
 46a:	2204      	movs	r2, #4
 46c:	828b      	strh	r3, [r1, #20]
 46e:	608f      	str	r7, [r1, #8]
 470:	6088      	str	r0, [r1, #8]
 472:	880b      	ldrh	r3, [r1, #0]
 474:	4313      	orrs	r3, r2
 476:	800b      	strh	r3, [r1, #0]
 478:	694b      	ldr	r3, [r1, #20]
 47a:	04db      	lsls	r3, r3, #19
 47c:	d5fc      	bpl.n	478 <core_set_system_clock+0x21c>
 47e:	2230      	movs	r2, #48	; 0x30
 480:	880b      	ldrh	r3, [r1, #0]
 482:	2708      	movs	r7, #8
 484:	4393      	bics	r3, r2
 486:	2220      	movs	r2, #32
 488:	4313      	orrs	r3, r2
 48a:	800b      	strh	r3, [r1, #0]
 48c:	4a4c      	ldr	r2, [pc, #304]	; (5c0 <core_set_system_clock+0x364>)
 48e:	4b4d      	ldr	r3, [pc, #308]	; (5c4 <core_set_system_clock+0x368>)
 490:	608a      	str	r2, [r1, #8]
 492:	608b      	str	r3, [r1, #8]
 494:	8808      	ldrh	r0, [r1, #0]
 496:	43b8      	bics	r0, r7
 498:	8008      	strh	r0, [r1, #0]
 49a:	608a      	str	r2, [r1, #8]
 49c:	608b      	str	r3, [r1, #8]
 49e:	8808      	ldrh	r0, [r1, #0]
 4a0:	3f07      	subs	r7, #7
 4a2:	e73a      	b.n	31a <core_set_system_clock+0xbe>
 4a4:	4b61      	ldr	r3, [pc, #388]	; (62c <core_set_system_clock+0x3d0>)
 4a6:	881a      	ldrh	r2, [r3, #0]
 4a8:	23fa      	movs	r3, #250	; 0xfa
 4aa:	009b      	lsls	r3, r3, #2
 4ac:	4353      	muls	r3, r2
 4ae:	00ca      	lsls	r2, r1, #3
 4b0:	1a52      	subs	r2, r2, r1
 4b2:	0092      	lsls	r2, r2, #2
 4b4:	188a      	adds	r2, r1, r2
 4b6:	0151      	lsls	r1, r2, #5
 4b8:	1a8a      	subs	r2, r1, r2
 4ba:	0192      	lsls	r2, r2, #6
 4bc:	1a9b      	subs	r3, r3, r2
 4be:	055b      	lsls	r3, r3, #21
 4c0:	0d5a      	lsrs	r2, r3, #21
 4c2:	493e      	ldr	r1, [pc, #248]	; (5bc <core_set_system_clock+0x360>)
 4c4:	4f3e      	ldr	r7, [pc, #248]	; (5c0 <core_set_system_clock+0x364>)
 4c6:	483f      	ldr	r0, [pc, #252]	; (5c4 <core_set_system_clock+0x368>)
 4c8:	608f      	str	r7, [r1, #8]
 4ca:	6088      	str	r0, [r1, #8]
 4cc:	898b      	ldrh	r3, [r1, #12]
 4ce:	0adb      	lsrs	r3, r3, #11
 4d0:	02db      	lsls	r3, r3, #11
 4d2:	4313      	orrs	r3, r2
 4d4:	2201      	movs	r2, #1
 4d6:	818b      	strh	r3, [r1, #12]
 4d8:	608f      	str	r7, [r1, #8]
 4da:	6088      	str	r0, [r1, #8]
 4dc:	880b      	ldrh	r3, [r1, #0]
 4de:	4313      	orrs	r3, r2
 4e0:	800b      	strh	r3, [r1, #0]
 4e2:	68cb      	ldr	r3, [r1, #12]
 4e4:	051b      	lsls	r3, r3, #20
 4e6:	d5fc      	bpl.n	4e2 <core_set_system_clock+0x286>
 4e8:	2230      	movs	r2, #48	; 0x30
 4ea:	2708      	movs	r7, #8
 4ec:	880b      	ldrh	r3, [r1, #0]
 4ee:	4393      	bics	r3, r2
 4f0:	800b      	strh	r3, [r1, #0]
 4f2:	4a33      	ldr	r2, [pc, #204]	; (5c0 <core_set_system_clock+0x364>)
 4f4:	4b33      	ldr	r3, [pc, #204]	; (5c4 <core_set_system_clock+0x368>)
 4f6:	608a      	str	r2, [r1, #8]
 4f8:	608b      	str	r3, [r1, #8]
 4fa:	8808      	ldrh	r0, [r1, #0]
 4fc:	43b8      	bics	r0, r7
 4fe:	8008      	strh	r0, [r1, #0]
 500:	608a      	str	r2, [r1, #8]
 502:	608b      	str	r3, [r1, #8]
 504:	8808      	ldrh	r0, [r1, #0]
 506:	3f04      	subs	r7, #4
 508:	43b8      	bics	r0, r7
 50a:	8008      	strh	r0, [r1, #0]
 50c:	608a      	str	r2, [r1, #8]
 50e:	608b      	str	r3, [r1, #8]
 510:	8808      	ldrh	r0, [r1, #0]
 512:	3f02      	subs	r7, #2
 514:	e707      	b.n	326 <core_set_system_clock+0xca>
 516:	4b43      	ldr	r3, [pc, #268]	; (624 <core_set_system_clock+0x3c8>)
 518:	881a      	ldrh	r2, [r3, #0]
 51a:	23fa      	movs	r3, #250	; 0xfa
 51c:	009b      	lsls	r3, r3, #2
 51e:	4353      	muls	r3, r2
 520:	059b      	lsls	r3, r3, #22
 522:	0d9a      	lsrs	r2, r3, #22
 524:	e793      	b.n	44e <core_set_system_clock+0x1f2>
 526:	4b41      	ldr	r3, [pc, #260]	; (62c <core_set_system_clock+0x3d0>)
 528:	881a      	ldrh	r2, [r3, #0]
 52a:	0153      	lsls	r3, r2, #5
 52c:	1a9b      	subs	r3, r3, r2
 52e:	0098      	lsls	r0, r3, #2
 530:	1880      	adds	r0, r0, r2
 532:	00c3      	lsls	r3, r0, #3
 534:	4698      	mov	r8, r3
 536:	4b3e      	ldr	r3, [pc, #248]	; (630 <core_set_system_clock+0x3d4>)
 538:	881a      	ldrh	r2, [r3, #0]
 53a:	0153      	lsls	r3, r2, #5
 53c:	1a9b      	subs	r3, r3, r2
 53e:	0098      	lsls	r0, r3, #2
 540:	4643      	mov	r3, r8
 542:	1880      	adds	r0, r0, r2
 544:	00c0      	lsls	r0, r0, #3
 546:	1ac0      	subs	r0, r0, r3
 548:	f000 f9f8 	bl	93c <__udivsi3>
 54c:	4378      	muls	r0, r7
 54e:	4440      	add	r0, r8
 550:	e74c      	b.n	3ec <core_set_system_clock+0x190>
 552:	4b38      	ldr	r3, [pc, #224]	; (634 <core_set_system_clock+0x3d8>)
 554:	e7e0      	b.n	518 <core_set_system_clock+0x2bc>
 556:	4b35      	ldr	r3, [pc, #212]	; (62c <core_set_system_clock+0x3d0>)
 558:	881a      	ldrh	r2, [r3, #0]
 55a:	23fa      	movs	r3, #250	; 0xfa
 55c:	009b      	lsls	r3, r3, #2
 55e:	4353      	muls	r3, r2
 560:	055b      	lsls	r3, r3, #21
 562:	0d5a      	lsrs	r2, r3, #21
 564:	e7ad      	b.n	4c2 <core_set_system_clock+0x266>
 566:	4b32      	ldr	r3, [pc, #200]	; (630 <core_set_system_clock+0x3d4>)
 568:	8818      	ldrh	r0, [r3, #0]
 56a:	0143      	lsls	r3, r0, #5
 56c:	1a1b      	subs	r3, r3, r0
 56e:	009f      	lsls	r7, r3, #2
 570:	4b31      	ldr	r3, [pc, #196]	; (638 <core_set_system_clock+0x3dc>)
 572:	183f      	adds	r7, r7, r0
 574:	8818      	ldrh	r0, [r3, #0]
 576:	00ff      	lsls	r7, r7, #3
 578:	0143      	lsls	r3, r0, #5
 57a:	1a1b      	subs	r3, r3, r0
 57c:	009b      	lsls	r3, r3, #2
 57e:	181b      	adds	r3, r3, r0
 580:	00db      	lsls	r3, r3, #3
 582:	1bd8      	subs	r0, r3, r7
 584:	f000 f9da 	bl	93c <__udivsi3>
 588:	4b2c      	ldr	r3, [pc, #176]	; (63c <core_set_system_clock+0x3e0>)
 58a:	e72c      	b.n	3e6 <core_set_system_clock+0x18a>
 58c:	4b28      	ldr	r3, [pc, #160]	; (630 <core_set_system_clock+0x3d4>)
 58e:	e7e3      	b.n	558 <core_set_system_clock+0x2fc>
 590:	4b29      	ldr	r3, [pc, #164]	; (638 <core_set_system_clock+0x3dc>)
 592:	492b      	ldr	r1, [pc, #172]	; (640 <core_set_system_clock+0x3e4>)
 594:	881b      	ldrh	r3, [r3, #0]
 596:	015f      	lsls	r7, r3, #5
 598:	1aff      	subs	r7, r7, r3
 59a:	00bf      	lsls	r7, r7, #2
 59c:	18ff      	adds	r7, r7, r3
 59e:	4b1a      	ldr	r3, [pc, #104]	; (608 <core_set_system_clock+0x3ac>)
 5a0:	00ff      	lsls	r7, r7, #3
 5a2:	881b      	ldrh	r3, [r3, #0]
 5a4:	0158      	lsls	r0, r3, #5
 5a6:	1ac0      	subs	r0, r0, r3
 5a8:	0080      	lsls	r0, r0, #2
 5aa:	18c0      	adds	r0, r0, r3
 5ac:	00c0      	lsls	r0, r0, #3
 5ae:	1bc0      	subs	r0, r0, r7
 5b0:	f000 f9c4 	bl	93c <__udivsi3>
 5b4:	4b23      	ldr	r3, [pc, #140]	; (644 <core_set_system_clock+0x3e8>)
 5b6:	e716      	b.n	3e6 <core_set_system_clock+0x18a>
 5b8:	4b13      	ldr	r3, [pc, #76]	; (608 <core_set_system_clock+0x3ac>)
 5ba:	e7cd      	b.n	558 <core_set_system_clock+0x2fc>
 5bc:	40002000 	.word	0x40002000
 5c0:	00005a5a 	.word	0x00005a5a
 5c4:	0000a5a5 	.word	0x0000a5a5
 5c8:	40020d00 	.word	0x40020d00
 5cc:	fffffe3f 	.word	0xfffffe3f
 5d0:	fffff9ff 	.word	0xfffff9ff
 5d4:	20000000 	.word	0x20000000
 5d8:	20000004 	.word	0x20000004
 5dc:	003d08ff 	.word	0x003d08ff
 5e0:	ffc2f700 	.word	0xffc2f700
 5e4:	01312d00 	.word	0x01312d00
 5e8:	003d0900 	.word	0x003d0900
 5ec:	007a11ff 	.word	0x007a11ff
 5f0:	007a1200 	.word	0x007a1200
 5f4:	00f423ff 	.word	0x00f423ff
 5f8:	00f42400 	.word	0x00f42400
 5fc:	0151863f 	.word	0x0151863f
 600:	01518640 	.word	0x01518640
 604:	016e3600 	.word	0x016e3600
 608:	00100c02 	.word	0x00100c02
 60c:	001cafc0 	.word	0x001cafc0
 610:	00100c00 	.word	0x00100c00
 614:	feae79c0 	.word	0xfeae79c0
 618:	00008020 	.word	0x00008020
 61c:	ffff7fdf 	.word	0xffff7fdf
 620:	000015de 	.word	0x000015de
 624:	00100c22 	.word	0x00100c22
 628:	ffff7fe0 	.word	0xffff7fe0
 62c:	00100c08 	.word	0x00100c08
 630:	00100c06 	.word	0x00100c06
 634:	00100c20 	.word	0x00100c20
 638:	00100c04 	.word	0x00100c04
 63c:	ff85ee00 	.word	0xff85ee00
 640:	005d6240 	.word	0x005d6240
 644:	ff0bdc00 	.word	0xff0bdc00
 648:	4b00      	ldr	r3, [pc, #0]	; (64c <core_set_system_clock+0x3f0>)
 64a:	e785      	b.n	558 <core_set_system_clock+0x2fc>
 64c:	00100c04 	.word	0x00100c04

00000650 <core_enable_systick>:
 650:	0001      	movs	r1, r0
 652:	b510      	push	{r4, lr}
 654:	4a14      	ldr	r2, [pc, #80]	; (6a8 <core_enable_systick+0x58>)
 656:	2800      	cmp	r0, #0
 658:	d01c      	beq.n	694 <core_enable_systick+0x44>
 65a:	2380      	movs	r3, #128	; 0x80
 65c:	6a10      	ldr	r0, [r2, #32]
 65e:	045b      	lsls	r3, r3, #17
 660:	4303      	orrs	r3, r0
 662:	6213      	str	r3, [r2, #32]
 664:	4b11      	ldr	r3, [pc, #68]	; (6ac <core_enable_systick+0x5c>)
 666:	6818      	ldr	r0, [r3, #0]
 668:	f000 f968 	bl	93c <__udivsi3>
 66c:	2380      	movs	r3, #128	; 0x80
 66e:	3801      	subs	r0, #1
 670:	041b      	lsls	r3, r3, #16
 672:	4298      	cmp	r0, r3
 674:	d20d      	bcs.n	692 <core_enable_systick+0x42>
 676:	21c0      	movs	r1, #192	; 0xc0
 678:	4a0d      	ldr	r2, [pc, #52]	; (6b0 <core_enable_systick+0x60>)
 67a:	0609      	lsls	r1, r1, #24
 67c:	6050      	str	r0, [r2, #4]
 67e:	480d      	ldr	r0, [pc, #52]	; (6b4 <core_enable_systick+0x64>)
 680:	6a03      	ldr	r3, [r0, #32]
 682:	021b      	lsls	r3, r3, #8
 684:	0a1b      	lsrs	r3, r3, #8
 686:	430b      	orrs	r3, r1
 688:	6203      	str	r3, [r0, #32]
 68a:	2300      	movs	r3, #0
 68c:	6093      	str	r3, [r2, #8]
 68e:	3307      	adds	r3, #7
 690:	6013      	str	r3, [r2, #0]
 692:	bd10      	pop	{r4, pc}
 694:	6a11      	ldr	r1, [r2, #32]
 696:	4b08      	ldr	r3, [pc, #32]	; (6b8 <core_enable_systick+0x68>)
 698:	400b      	ands	r3, r1
 69a:	2107      	movs	r1, #7
 69c:	6213      	str	r3, [r2, #32]
 69e:	4a04      	ldr	r2, [pc, #16]	; (6b0 <core_enable_systick+0x60>)
 6a0:	6813      	ldr	r3, [r2, #0]
 6a2:	438b      	bics	r3, r1
 6a4:	6013      	str	r3, [r2, #0]
 6a6:	e7f4      	b.n	692 <core_enable_systick+0x42>
 6a8:	40002000 	.word	0x40002000
 6ac:	20000000 	.word	0x20000000
 6b0:	e000e010 	.word	0xe000e010
 6b4:	e000ed00 	.word	0xe000ed00
 6b8:	feffffff 	.word	0xfeffffff

000006bc <peripheral_set_enabled>:
 6bc:	4b01      	ldr	r3, [pc, #4]	; (6c4 <peripheral_set_enabled+0x8>)
 6be:	6218      	str	r0, [r3, #32]
 6c0:	4770      	bx	lr
 6c2:	46c0      	nop			; (mov r8, r8)
 6c4:	40002000 	.word	0x40002000

000006c8 <peripheral_get_enabled>:
 6c8:	4b01      	ldr	r3, [pc, #4]	; (6d0 <peripheral_get_enabled+0x8>)
 6ca:	6a18      	ldr	r0, [r3, #32]
 6cc:	4770      	bx	lr
 6ce:	46c0      	nop			; (mov r8, r8)
 6d0:	40002000 	.word	0x40002000

000006d4 <SysTick_Handler>:
 6d4:	4b03      	ldr	r3, [pc, #12]	; (6e4 <SysTick_Handler+0x10>)
 6d6:	685a      	ldr	r2, [r3, #4]
 6d8:	3201      	adds	r2, #1
 6da:	605a      	str	r2, [r3, #4]
 6dc:	681a      	ldr	r2, [r3, #0]
 6de:	3201      	adds	r2, #1
 6e0:	601a      	str	r2, [r3, #0]
 6e2:	4770      	bx	lr
 6e4:	20000008 	.word	0x20000008

000006e8 <gpio_configure>:
 6e8:	b5f0      	push	{r4, r5, r6, r7, lr}
 6ea:	b083      	sub	sp, #12
 6ec:	ac01      	add	r4, sp, #4
 6ee:	8021      	strh	r1, [r4, #0]
 6f0:	2101      	movs	r1, #1
 6f2:	7823      	ldrb	r3, [r4, #0]
 6f4:	7b05      	ldrb	r5, [r0, #12]
 6f6:	07de      	lsls	r6, r3, #31
 6f8:	40a9      	lsls	r1, r5
 6fa:	0ff6      	lsrs	r6, r6, #31
 6fc:	40ae      	lsls	r6, r5
 6fe:	6842      	ldr	r2, [r0, #4]
 700:	6817      	ldr	r7, [r2, #0]
 702:	438f      	bics	r7, r1
 704:	433e      	orrs	r6, r7
 706:	6016      	str	r6, [r2, #0]
 708:	079e      	lsls	r6, r3, #30
 70a:	0ff6      	lsrs	r6, r6, #31
 70c:	40ae      	lsls	r6, r5
 70e:	68d7      	ldr	r7, [r2, #12]
 710:	438f      	bics	r7, r1
 712:	433e      	orrs	r6, r7
 714:	60d6      	str	r6, [r2, #12]
 716:	075e      	lsls	r6, r3, #29
 718:	0ff6      	lsrs	r6, r6, #31
 71a:	40ae      	lsls	r6, r5
 71c:	69d7      	ldr	r7, [r2, #28]
 71e:	438f      	bics	r7, r1
 720:	433e      	orrs	r6, r7
 722:	61d6      	str	r6, [r2, #28]
 724:	071e      	lsls	r6, r3, #28
 726:	0ff6      	lsrs	r6, r6, #31
 728:	40ae      	lsls	r6, r5
 72a:	6a17      	ldr	r7, [r2, #32]
 72c:	438f      	bics	r7, r1
 72e:	433e      	orrs	r6, r7
 730:	6216      	str	r6, [r2, #32]
 732:	06de      	lsls	r6, r3, #27
 734:	0ff6      	lsrs	r6, r6, #31
 736:	40ae      	lsls	r6, r5
 738:	069b      	lsls	r3, r3, #26
 73a:	0fdb      	lsrs	r3, r3, #31
 73c:	40ab      	lsls	r3, r5
 73e:	6a57      	ldr	r7, [r2, #36]	; 0x24
 740:	438f      	bics	r7, r1
 742:	433e      	orrs	r6, r7
 744:	6256      	str	r6, [r2, #36]	; 0x24
 746:	6ad6      	ldr	r6, [r2, #44]	; 0x2c
 748:	438e      	bics	r6, r1
 74a:	4333      	orrs	r3, r6
 74c:	62d3      	str	r3, [r2, #44]	; 0x2c
 74e:	7863      	ldrb	r3, [r4, #1]
 750:	6802      	ldr	r2, [r0, #0]
 752:	075b      	lsls	r3, r3, #29
 754:	0f5b      	lsrs	r3, r3, #29
 756:	6013      	str	r3, [r2, #0]
 758:	b003      	add	sp, #12
 75a:	bdf0      	pop	{r4, r5, r6, r7, pc}

0000075c <gpio_digital_read>:
 75c:	6843      	ldr	r3, [r0, #4]
 75e:	7b02      	ldrb	r2, [r0, #12]
 760:	685b      	ldr	r3, [r3, #4]
 762:	2001      	movs	r0, #1
 764:	40d3      	lsrs	r3, r2
 766:	4018      	ands	r0, r3
 768:	4770      	bx	lr
 76a:	46c0      	nop			; (mov r8, r8)

0000076c <gpio_digital_write>:
 76c:	2201      	movs	r2, #1
 76e:	b510      	push	{r4, lr}
 770:	6844      	ldr	r4, [r0, #4]
 772:	7b00      	ldrb	r0, [r0, #12]
 774:	68a3      	ldr	r3, [r4, #8]
 776:	4082      	lsls	r2, r0
 778:	4081      	lsls	r1, r0
 77a:	4393      	bics	r3, r2
 77c:	430b      	orrs	r3, r1
 77e:	60a3      	str	r3, [r4, #8]
 780:	bd10      	pop	{r4, pc}
 782:	46c0      	nop			; (mov r8, r8)

00000784 <gpio_clear_interrupt>:
 784:	2201      	movs	r2, #1
 786:	6881      	ldr	r1, [r0, #8]
 788:	7b00      	ldrb	r0, [r0, #12]
 78a:	690b      	ldr	r3, [r1, #16]
 78c:	4082      	lsls	r2, r0
 78e:	4393      	bics	r3, r2
 790:	610b      	str	r3, [r1, #16]
 792:	4770      	bx	lr

00000794 <gpio_set_interrupt_handler>:
 794:	b510      	push	{r4, lr}
 796:	6843      	ldr	r3, [r0, #4]
 798:	078c      	lsls	r4, r1, #30
 79a:	0fe4      	lsrs	r4, r4, #31
 79c:	631c      	str	r4, [r3, #48]	; 0x30
 79e:	074c      	lsls	r4, r1, #29
 7a0:	0fe4      	lsrs	r4, r4, #31
 7a2:	635c      	str	r4, [r3, #52]	; 0x34
 7a4:	070c      	lsls	r4, r1, #28
 7a6:	06c9      	lsls	r1, r1, #27
 7a8:	0fe4      	lsrs	r4, r4, #31
 7aa:	0fc9      	lsrs	r1, r1, #31
 7ac:	639c      	str	r4, [r3, #56]	; 0x38
 7ae:	63d9      	str	r1, [r3, #60]	; 0x3c
 7b0:	7b43      	ldrb	r3, [r0, #13]
 7b2:	4902      	ldr	r1, [pc, #8]	; (7bc <gpio_set_interrupt_handler+0x28>)
 7b4:	009b      	lsls	r3, r3, #2
 7b6:	50ca      	str	r2, [r1, r3]
 7b8:	bd10      	pop	{r4, pc}
 7ba:	46c0      	nop			; (mov r8, r8)
 7bc:	20000010 	.word	0x20000010

000007c0 <__handle_gpio_interrupt>:
 7c0:	b5f0      	push	{r4, r5, r6, r7, lr}
 7c2:	46c6      	mov	lr, r8
 7c4:	0005      	movs	r5, r0
 7c6:	000f      	movs	r7, r1
 7c8:	b500      	push	{lr}
 7ca:	4288      	cmp	r0, r1
 7cc:	d819      	bhi.n	802 <__handle_gpio_interrupt+0x42>
 7ce:	4e0e      	ldr	r6, [pc, #56]	; (808 <__handle_gpio_interrupt+0x48>)
 7d0:	0083      	lsls	r3, r0, #2
 7d2:	18f6      	adds	r6, r6, r3
 7d4:	4b0d      	ldr	r3, [pc, #52]	; (80c <__handle_gpio_interrupt+0x4c>)
 7d6:	0104      	lsls	r4, r0, #4
 7d8:	18e4      	adds	r4, r4, r3
 7da:	2301      	movs	r3, #1
 7dc:	4698      	mov	r8, r3
 7de:	6833      	ldr	r3, [r6, #0]
 7e0:	2b00      	cmp	r3, #0
 7e2:	d009      	beq.n	7f8 <__handle_gpio_interrupt+0x38>
 7e4:	4640      	mov	r0, r8
 7e6:	68a2      	ldr	r2, [r4, #8]
 7e8:	6811      	ldr	r1, [r2, #0]
 7ea:	7b22      	ldrb	r2, [r4, #12]
 7ec:	4090      	lsls	r0, r2
 7ee:	4201      	tst	r1, r0
 7f0:	d002      	beq.n	7f8 <__handle_gpio_interrupt+0x38>
 7f2:	0020      	movs	r0, r4
 7f4:	681b      	ldr	r3, [r3, #0]
 7f6:	4798      	blx	r3
 7f8:	3501      	adds	r5, #1
 7fa:	3604      	adds	r6, #4
 7fc:	3410      	adds	r4, #16
 7fe:	42af      	cmp	r7, r5
 800:	d2ed      	bcs.n	7de <__handle_gpio_interrupt+0x1e>
 802:	bc80      	pop	{r7}
 804:	46b8      	mov	r8, r7
 806:	bdf0      	pop	{r4, r5, r6, r7, pc}
 808:	20000010 	.word	0x20000010
 80c:	00000a5c 	.word	0x00000a5c

00000810 <GpioPort0_Handler>:
 810:	b5f8      	push	{r3, r4, r5, r6, r7, lr}
 812:	4c0b      	ldr	r4, [pc, #44]	; (840 <GpioPort0_Handler+0x30>)
 814:	2701      	movs	r7, #1
 816:	0026      	movs	r6, r4
 818:	4d0a      	ldr	r5, [pc, #40]	; (844 <GpioPort0_Handler+0x34>)
 81a:	3630      	adds	r6, #48	; 0x30
 81c:	682b      	ldr	r3, [r5, #0]
 81e:	2b00      	cmp	r3, #0
 820:	d009      	beq.n	836 <GpioPort0_Handler+0x26>
 822:	0038      	movs	r0, r7
 824:	68a2      	ldr	r2, [r4, #8]
 826:	6811      	ldr	r1, [r2, #0]
 828:	7b22      	ldrb	r2, [r4, #12]
 82a:	4090      	lsls	r0, r2
 82c:	4201      	tst	r1, r0
 82e:	d002      	beq.n	836 <GpioPort0_Handler+0x26>
 830:	0020      	movs	r0, r4
 832:	681b      	ldr	r3, [r3, #0]
 834:	4798      	blx	r3
 836:	3410      	adds	r4, #16
 838:	3504      	adds	r5, #4
 83a:	42b4      	cmp	r4, r6
 83c:	d1ee      	bne.n	81c <GpioPort0_Handler+0xc>
 83e:	bdf8      	pop	{r3, r4, r5, r6, r7, pc}
 840:	00000a5c 	.word	0x00000a5c
 844:	20000010 	.word	0x20000010

00000848 <GpioPort1_Handler>:
 848:	b510      	push	{r4, lr}
 84a:	4c0b      	ldr	r4, [pc, #44]	; (878 <GpioPort1_Handler+0x30>)
 84c:	68e3      	ldr	r3, [r4, #12]
 84e:	2b00      	cmp	r3, #0
 850:	d003      	beq.n	85a <GpioPort1_Handler+0x12>
 852:	4a0a      	ldr	r2, [pc, #40]	; (87c <GpioPort1_Handler+0x34>)
 854:	6812      	ldr	r2, [r2, #0]
 856:	0692      	lsls	r2, r2, #26
 858:	d40a      	bmi.n	870 <GpioPort1_Handler+0x28>
 85a:	6923      	ldr	r3, [r4, #16]
 85c:	2b00      	cmp	r3, #0
 85e:	d006      	beq.n	86e <GpioPort1_Handler+0x26>
 860:	4a06      	ldr	r2, [pc, #24]	; (87c <GpioPort1_Handler+0x34>)
 862:	6812      	ldr	r2, [r2, #0]
 864:	0652      	lsls	r2, r2, #25
 866:	d502      	bpl.n	86e <GpioPort1_Handler+0x26>
 868:	681b      	ldr	r3, [r3, #0]
 86a:	4805      	ldr	r0, [pc, #20]	; (880 <GpioPort1_Handler+0x38>)
 86c:	4798      	blx	r3
 86e:	bd10      	pop	{r4, pc}
 870:	681b      	ldr	r3, [r3, #0]
 872:	4804      	ldr	r0, [pc, #16]	; (884 <GpioPort1_Handler+0x3c>)
 874:	4798      	blx	r3
 876:	e7f0      	b.n	85a <GpioPort1_Handler+0x12>
 878:	20000010 	.word	0x20000010
 87c:	40020e10 	.word	0x40020e10
 880:	00000a9c 	.word	0x00000a9c
 884:	00000a8c 	.word	0x00000a8c

00000888 <GpioPort2_Handler>:
 888:	b5f8      	push	{r3, r4, r5, r6, r7, lr}
 88a:	4c0b      	ldr	r4, [pc, #44]	; (8b8 <GpioPort2_Handler+0x30>)
 88c:	2701      	movs	r7, #1
 88e:	0026      	movs	r6, r4
 890:	4d0a      	ldr	r5, [pc, #40]	; (8bc <GpioPort2_Handler+0x34>)
 892:	3650      	adds	r6, #80	; 0x50
 894:	696b      	ldr	r3, [r5, #20]
 896:	2b00      	cmp	r3, #0
 898:	d009      	beq.n	8ae <GpioPort2_Handler+0x26>
 89a:	0038      	movs	r0, r7
 89c:	68a2      	ldr	r2, [r4, #8]
 89e:	6811      	ldr	r1, [r2, #0]
 8a0:	7b22      	ldrb	r2, [r4, #12]
 8a2:	4090      	lsls	r0, r2
 8a4:	4201      	tst	r1, r0
 8a6:	d002      	beq.n	8ae <GpioPort2_Handler+0x26>
 8a8:	0020      	movs	r0, r4
 8aa:	681b      	ldr	r3, [r3, #0]
 8ac:	4798      	blx	r3
 8ae:	3410      	adds	r4, #16
 8b0:	3504      	adds	r5, #4
 8b2:	42b4      	cmp	r4, r6
 8b4:	d1ee      	bne.n	894 <GpioPort2_Handler+0xc>
 8b6:	bdf8      	pop	{r3, r4, r5, r6, r7, pc}
 8b8:	00000aac 	.word	0x00000aac
 8bc:	20000010 	.word	0x20000010

000008c0 <GpioPort3_Handler>:
 8c0:	b5f8      	push	{r3, r4, r5, r6, r7, lr}
 8c2:	4c0c      	ldr	r4, [pc, #48]	; (8f4 <GpioPort3_Handler+0x34>)
 8c4:	2701      	movs	r7, #1
 8c6:	0026      	movs	r6, r4
 8c8:	4d0b      	ldr	r5, [pc, #44]	; (8f8 <GpioPort3_Handler+0x38>)
 8ca:	3660      	adds	r6, #96	; 0x60
 8cc:	3528      	adds	r5, #40	; 0x28
 8ce:	682b      	ldr	r3, [r5, #0]
 8d0:	2b00      	cmp	r3, #0
 8d2:	d009      	beq.n	8e8 <GpioPort3_Handler+0x28>
 8d4:	0038      	movs	r0, r7
 8d6:	68a2      	ldr	r2, [r4, #8]
 8d8:	6811      	ldr	r1, [r2, #0]
 8da:	7b22      	ldrb	r2, [r4, #12]
 8dc:	4090      	lsls	r0, r2
 8de:	4201      	tst	r1, r0
 8e0:	d002      	beq.n	8e8 <GpioPort3_Handler+0x28>
 8e2:	0020      	movs	r0, r4
 8e4:	681b      	ldr	r3, [r3, #0]
 8e6:	4798      	blx	r3
 8e8:	3410      	adds	r4, #16
 8ea:	3504      	adds	r5, #4
 8ec:	42b4      	cmp	r4, r6
 8ee:	d1ee      	bne.n	8ce <GpioPort3_Handler+0xe>
 8f0:	bdf8      	pop	{r3, r4, r5, r6, r7, pc}
 8f2:	46c0      	nop			; (mov r8, r8)
 8f4:	00000afc 	.word	0x00000afc
 8f8:	20000010 	.word	0x20000010

000008fc <peripheral_enable_gpio>:
 8fc:	23ff      	movs	r3, #255	; 0xff
 8fe:	b510      	push	{r4, lr}
 900:	490a      	ldr	r1, [pc, #40]	; (92c <peripheral_enable_gpio+0x30>)
 902:	4a0b      	ldr	r2, [pc, #44]	; (930 <peripheral_enable_gpio+0x34>)
 904:	4c0b      	ldr	r4, [pc, #44]	; (934 <peripheral_enable_gpio+0x38>)
 906:	480c      	ldr	r0, [pc, #48]	; (938 <peripheral_enable_gpio+0x3c>)
 908:	6023      	str	r3, [r4, #0]
 90a:	6003      	str	r3, [r0, #0]
 90c:	600b      	str	r3, [r1, #0]
 90e:	6013      	str	r3, [r2, #0]
 910:	2300      	movs	r3, #0
 912:	62e3      	str	r3, [r4, #44]	; 0x2c
 914:	62c3      	str	r3, [r0, #44]	; 0x2c
 916:	62cb      	str	r3, [r1, #44]	; 0x2c
 918:	62d3      	str	r3, [r2, #44]	; 0x2c
 91a:	f7ff fed5 	bl	6c8 <peripheral_get_enabled>
 91e:	2380      	movs	r3, #128	; 0x80
 920:	055b      	lsls	r3, r3, #21
 922:	4318      	orrs	r0, r3
 924:	f7ff feca 	bl	6bc <peripheral_set_enabled>
 928:	bd10      	pop	{r4, pc}
 92a:	46c0      	nop			; (mov r8, r8)
 92c:	40020d80 	.word	0x40020d80
 930:	40020dc0 	.word	0x40020dc0
 934:	40020d00 	.word	0x40020d00
 938:	40020d40 	.word	0x40020d40

0000093c <__udivsi3>:
 93c:	2200      	movs	r2, #0
 93e:	0843      	lsrs	r3, r0, #1
 940:	428b      	cmp	r3, r1
 942:	d374      	bcc.n	a2e <__udivsi3+0xf2>
 944:	0903      	lsrs	r3, r0, #4
 946:	428b      	cmp	r3, r1
 948:	d35f      	bcc.n	a0a <__udivsi3+0xce>
 94a:	0a03      	lsrs	r3, r0, #8
 94c:	428b      	cmp	r3, r1
 94e:	d344      	bcc.n	9da <__udivsi3+0x9e>
 950:	0b03      	lsrs	r3, r0, #12
 952:	428b      	cmp	r3, r1
 954:	d328      	bcc.n	9a8 <__udivsi3+0x6c>
 956:	0c03      	lsrs	r3, r0, #16
 958:	428b      	cmp	r3, r1
 95a:	d30d      	bcc.n	978 <__udivsi3+0x3c>
 95c:	22ff      	movs	r2, #255	; 0xff
 95e:	0209      	lsls	r1, r1, #8
 960:	ba12      	rev	r2, r2
 962:	0c03      	lsrs	r3, r0, #16
 964:	428b      	cmp	r3, r1
 966:	d302      	bcc.n	96e <__udivsi3+0x32>
 968:	1212      	asrs	r2, r2, #8
 96a:	0209      	lsls	r1, r1, #8
 96c:	d065      	beq.n	a3a <__udivsi3+0xfe>
 96e:	0b03      	lsrs	r3, r0, #12
 970:	428b      	cmp	r3, r1
 972:	d319      	bcc.n	9a8 <__udivsi3+0x6c>
 974:	e000      	b.n	978 <__udivsi3+0x3c>
 976:	0a09      	lsrs	r1, r1, #8
 978:	0bc3      	lsrs	r3, r0, #15
 97a:	428b      	cmp	r3, r1
 97c:	d301      	bcc.n	982 <__udivsi3+0x46>
 97e:	03cb      	lsls	r3, r1, #15
 980:	1ac0      	subs	r0, r0, r3
 982:	4152      	adcs	r2, r2
 984:	0b83      	lsrs	r3, r0, #14
 986:	428b      	cmp	r3, r1
 988:	d301      	bcc.n	98e <__udivsi3+0x52>
 98a:	038b      	lsls	r3, r1, #14
 98c:	1ac0      	subs	r0, r0, r3
 98e:	4152      	adcs	r2, r2
 990:	0b43      	lsrs	r3, r0, #13
 992:	428b      	cmp	r3, r1
 994:	d301      	bcc.n	99a <__udivsi3+0x5e>
 996:	034b      	lsls	r3, r1, #13
 998:	1ac0      	subs	r0, r0, r3
 99a:	4152      	adcs	r2, r2
 99c:	0b03      	lsrs	r3, r0, #12
 99e:	428b      	cmp	r3, r1
 9a0:	d301      	bcc.n	9a6 <__udivsi3+0x6a>
 9a2:	030b      	lsls	r3, r1, #12
 9a4:	1ac0      	subs	r0, r0, r3
 9a6:	4152      	adcs	r2, r2
 9a8:	0ac3      	lsrs	r3, r0, #11
 9aa:	428b      	cmp	r3, r1
 9ac:	d301      	bcc.n	9b2 <__udivsi3+0x76>
 9ae:	02cb      	lsls	r3, r1, #11
 9b0:	1ac0      	subs	r0, r0, r3
 9b2:	4152      	adcs	r2, r2
 9b4:	0a83      	lsrs	r3, r0, #10
 9b6:	428b      	cmp	r3, r1
 9b8:	d301      	bcc.n	9be <__udivsi3+0x82>
 9ba:	028b      	lsls	r3, r1, #10
 9bc:	1ac0      	subs	r0, r0, r3
 9be:	4152      	adcs	r2, r2
 9c0:	0a43      	lsrs	r3, r0, #9
 9c2:	428b      	cmp	r3, r1
 9c4:	d301      	bcc.n	9ca <__udivsi3+0x8e>
 9c6:	024b      	lsls	r3, r1, #9
 9c8:	1ac0      	subs	r0, r0, r3
 9ca:	4152      	adcs	r2, r2
 9cc:	0a03      	lsrs	r3, r0, #8
 9ce:	428b      	cmp	r3, r1
 9d0:	d301      	bcc.n	9d6 <__udivsi3+0x9a>
 9d2:	020b      	lsls	r3, r1, #8
 9d4:	1ac0      	subs	r0, r0, r3
 9d6:	4152      	adcs	r2, r2
 9d8:	d2cd      	bcs.n	976 <__udivsi3+0x3a>
 9da:	09c3      	lsrs	r3, r0, #7
 9dc:	428b      	cmp	r3, r1
 9de:	d301      	bcc.n	9e4 <__udivsi3+0xa8>
 9e0:	01cb      	lsls	r3, r1, #7
 9e2:	1ac0      	subs	r0, r0, r3
 9e4:	4152      	adcs	r2, r2
 9e6:	0983      	lsrs	r3, r0, #6
 9e8:	428b      	cmp	r3, r1
 9ea:	d301      	bcc.n	9f0 <__udivsi3+0xb4>
 9ec:	018b      	lsls	r3, r1, #6
 9ee:	1ac0      	subs	r0, r0, r3
 9f0:	4152      	adcs	r2, r2
 9f2:	0943      	lsrs	r3, r0, #5
 9f4:	428b      	cmp	r3, r1
 9f6:	d301      	bcc.n	9fc <__udivsi3+0xc0>
 9f8:	014b      	lsls	r3, r1, #5
 9fa:	1ac0      	subs	r0, r0, r3
 9fc:	4152      	adcs	r2, r2
 9fe:	0903      	lsrs	r3, r0, #4
 a00:	428b      	cmp	r3, r1
 a02:	d301      	bcc.n	a08 <__udivsi3+0xcc>
 a04:	010b      	lsls	r3, r1, #4
 a06:	1ac0      	subs	r0, r0, r3
 a08:	4152      	adcs	r2, r2
 a0a:	08c3      	lsrs	r3, r0, #3
 a0c:	428b      	cmp	r3, r1
 a0e:	d301      	bcc.n	a14 <__udivsi3+0xd8>
 a10:	00cb      	lsls	r3, r1, #3
 a12:	1ac0      	subs	r0, r0, r3
 a14:	4152      	adcs	r2, r2
 a16:	0883      	lsrs	r3, r0, #2
 a18:	428b      	cmp	r3, r1
 a1a:	d301      	bcc.n	a20 <__udivsi3+0xe4>
 a1c:	008b      	lsls	r3, r1, #2
 a1e:	1ac0      	subs	r0, r0, r3
 a20:	4152      	adcs	r2, r2
 a22:	0843      	lsrs	r3, r0, #1
 a24:	428b      	cmp	r3, r1
 a26:	d301      	bcc.n	a2c <__udivsi3+0xf0>
 a28:	004b      	lsls	r3, r1, #1
 a2a:	1ac0      	subs	r0, r0, r3
 a2c:	4152      	adcs	r2, r2
 a2e:	1a41      	subs	r1, r0, r1
 a30:	d200      	bcs.n	a34 <__udivsi3+0xf8>
 a32:	4601      	mov	r1, r0
 a34:	4152      	adcs	r2, r2
 a36:	4610      	mov	r0, r2
 a38:	4770      	bx	lr
 a3a:	e7ff      	b.n	a3c <__udivsi3+0x100>
 a3c:	b501      	push	{r0, lr}
 a3e:	2000      	movs	r0, #0
 a40:	f000 f806 	bl	a50 <__aeabi_idiv0>
 a44:	bd02      	pop	{r1, pc}
 a46:	46c0      	nop			; (mov r8, r8)

00000a48 <__aeabi_uidivmod>:
 a48:	2900      	cmp	r1, #0
 a4a:	d0f7      	beq.n	a3c <__udivsi3+0x100>
 a4c:	e776      	b.n	93c <__udivsi3>
 a4e:	4770      	bx	lr

00000a50 <__aeabi_idiv0>:
 a50:	4770      	bx	lr
 a52:	46c0      	nop			; (mov r8, r8)

00000a54 <gpio_digital_input>:
 a54:	0001 0000                                   ....

00000a58 <gpio_digital_output>:
 a58:	0008 0000                                   ....

00000a5c <port_descriptors>:
 a5c:	0c04 4002 0d00 4002 0dd0 4002 0001 0000     ...@...@...@....
 a6c:	0c08 4002 0d00 4002 0dd0 4002 0102 0000     ...@...@...@....
 a7c:	0c0c 4002 0d00 4002 0dd0 4002 0203 0000     ...@...@...@....
 a8c:	0c50 4002 0d40 4002 0e10 4002 0305 0000     P..@@..@...@....
 a9c:	0c54 4002 0d40 4002 0e10 4002 0406 0000     T..@@..@...@....
 aac:	0c8c 4002 0d80 4002 0e50 4002 0504 0000     ...@...@P..@....
 abc:	0c90 4002 0d80 4002 0e50 4002 0605 0000     ...@...@P..@....
 acc:	0c94 4002 0d50 4002 0e50 4002 0706 0000     ...@P..@P..@....
 adc:	0c98 4002 0d80 4002 0e50 4002 0807 0000     ...@...@P..@....
 aec:	0c9c 4002 0d80 4002 0e50 4002 0908 0000     ...@...@P..@....
 afc:	0cc4 4002 0dc0 4002 0e90 4002 0a01 0000     ...@...@...@....
 b0c:	0cc8 4002 0dc0 4002 0e90 4002 0b02 0000     ...@...@...@....
 b1c:	0ccc 4002 0dc0 4002 0e90 4002 0c03 0000     ...@...@...@....
 b2c:	0cd0 4002 0dc0 4002 0e90 4002 0d04 0000     ...@...@...@....
 b3c:	0cd4 4002 0d90 4002 0e90 4002 0e05 0000     ...@...@...@....
 b4c:	0cd8 4002 0dc0 4002 0e90 4002 0f06 0000     ...@...@...@....
