
.\lib\bin\hc32l110_ddl_gpio.o:     file format elf32-littlearm


Disassembly of section .text.gpio_configure:

00000000 <gpio_configure>:
   0:	b580      	push	{r7, lr}
   2:	b082      	sub	sp, #8
   4:	af00      	add	r7, sp, #0
   6:	6078      	str	r0, [r7, #4]
   8:	003b      	movs	r3, r7
   a:	8019      	strh	r1, [r3, #0]
   c:	687b      	ldr	r3, [r7, #4]
   e:	685b      	ldr	r3, [r3, #4]
  10:	681b      	ldr	r3, [r3, #0]
  12:	687a      	ldr	r2, [r7, #4]
  14:	7b12      	ldrb	r2, [r2, #12]
  16:	0011      	movs	r1, r2
  18:	2201      	movs	r2, #1
  1a:	408a      	lsls	r2, r1
  1c:	43d2      	mvns	r2, r2
  1e:	401a      	ands	r2, r3
  20:	003b      	movs	r3, r7
  22:	781b      	ldrb	r3, [r3, #0]
  24:	07db      	lsls	r3, r3, #31
  26:	0fdb      	lsrs	r3, r3, #31
  28:	b2db      	uxtb	r3, r3
  2a:	0019      	movs	r1, r3
  2c:	687b      	ldr	r3, [r7, #4]
  2e:	7b1b      	ldrb	r3, [r3, #12]
  30:	4099      	lsls	r1, r3
  32:	000b      	movs	r3, r1
  34:	0019      	movs	r1, r3
  36:	687b      	ldr	r3, [r7, #4]
  38:	685b      	ldr	r3, [r3, #4]
  3a:	430a      	orrs	r2, r1
  3c:	601a      	str	r2, [r3, #0]
  3e:	687b      	ldr	r3, [r7, #4]
  40:	685b      	ldr	r3, [r3, #4]
  42:	68db      	ldr	r3, [r3, #12]
  44:	687a      	ldr	r2, [r7, #4]
  46:	7b12      	ldrb	r2, [r2, #12]
  48:	0011      	movs	r1, r2
  4a:	2201      	movs	r2, #1
  4c:	408a      	lsls	r2, r1
  4e:	43d2      	mvns	r2, r2
  50:	401a      	ands	r2, r3
  52:	003b      	movs	r3, r7
  54:	781b      	ldrb	r3, [r3, #0]
  56:	079b      	lsls	r3, r3, #30
  58:	0fdb      	lsrs	r3, r3, #31
  5a:	b2db      	uxtb	r3, r3
  5c:	0019      	movs	r1, r3
  5e:	687b      	ldr	r3, [r7, #4]
  60:	7b1b      	ldrb	r3, [r3, #12]
  62:	4099      	lsls	r1, r3
  64:	000b      	movs	r3, r1
  66:	0019      	movs	r1, r3
  68:	687b      	ldr	r3, [r7, #4]
  6a:	685b      	ldr	r3, [r3, #4]
  6c:	430a      	orrs	r2, r1
  6e:	60da      	str	r2, [r3, #12]
  70:	687b      	ldr	r3, [r7, #4]
  72:	685b      	ldr	r3, [r3, #4]
  74:	69db      	ldr	r3, [r3, #28]
  76:	687a      	ldr	r2, [r7, #4]
  78:	7b12      	ldrb	r2, [r2, #12]
  7a:	0011      	movs	r1, r2
  7c:	2201      	movs	r2, #1
  7e:	408a      	lsls	r2, r1
  80:	43d2      	mvns	r2, r2
  82:	401a      	ands	r2, r3
  84:	003b      	movs	r3, r7
  86:	781b      	ldrb	r3, [r3, #0]
  88:	075b      	lsls	r3, r3, #29
  8a:	0fdb      	lsrs	r3, r3, #31
  8c:	b2db      	uxtb	r3, r3
  8e:	0019      	movs	r1, r3
  90:	687b      	ldr	r3, [r7, #4]
  92:	7b1b      	ldrb	r3, [r3, #12]
  94:	4099      	lsls	r1, r3
  96:	000b      	movs	r3, r1
  98:	0019      	movs	r1, r3
  9a:	687b      	ldr	r3, [r7, #4]
  9c:	685b      	ldr	r3, [r3, #4]
  9e:	430a      	orrs	r2, r1
  a0:	61da      	str	r2, [r3, #28]
  a2:	687b      	ldr	r3, [r7, #4]
  a4:	685b      	ldr	r3, [r3, #4]
  a6:	6a1b      	ldr	r3, [r3, #32]
  a8:	687a      	ldr	r2, [r7, #4]
  aa:	7b12      	ldrb	r2, [r2, #12]
  ac:	0011      	movs	r1, r2
  ae:	2201      	movs	r2, #1
  b0:	408a      	lsls	r2, r1
  b2:	43d2      	mvns	r2, r2
  b4:	401a      	ands	r2, r3
  b6:	003b      	movs	r3, r7
  b8:	781b      	ldrb	r3, [r3, #0]
  ba:	071b      	lsls	r3, r3, #28
  bc:	0fdb      	lsrs	r3, r3, #31
  be:	b2db      	uxtb	r3, r3
  c0:	0019      	movs	r1, r3
  c2:	687b      	ldr	r3, [r7, #4]
  c4:	7b1b      	ldrb	r3, [r3, #12]
  c6:	4099      	lsls	r1, r3
  c8:	000b      	movs	r3, r1
  ca:	0019      	movs	r1, r3
  cc:	687b      	ldr	r3, [r7, #4]
  ce:	685b      	ldr	r3, [r3, #4]
  d0:	430a      	orrs	r2, r1
  d2:	621a      	str	r2, [r3, #32]
  d4:	687b      	ldr	r3, [r7, #4]
  d6:	685b      	ldr	r3, [r3, #4]
  d8:	6a5b      	ldr	r3, [r3, #36]	; 0x24
  da:	687a      	ldr	r2, [r7, #4]
  dc:	7b12      	ldrb	r2, [r2, #12]
  de:	0011      	movs	r1, r2
  e0:	2201      	movs	r2, #1
  e2:	408a      	lsls	r2, r1
  e4:	43d2      	mvns	r2, r2
  e6:	401a      	ands	r2, r3
  e8:	003b      	movs	r3, r7
  ea:	781b      	ldrb	r3, [r3, #0]
  ec:	06db      	lsls	r3, r3, #27
  ee:	0fdb      	lsrs	r3, r3, #31
  f0:	b2db      	uxtb	r3, r3
  f2:	0019      	movs	r1, r3
  f4:	687b      	ldr	r3, [r7, #4]
  f6:	7b1b      	ldrb	r3, [r3, #12]
  f8:	4099      	lsls	r1, r3
  fa:	000b      	movs	r3, r1
  fc:	0019      	movs	r1, r3
  fe:	687b      	ldr	r3, [r7, #4]
 100:	685b      	ldr	r3, [r3, #4]
 102:	430a      	orrs	r2, r1
 104:	625a      	str	r2, [r3, #36]	; 0x24
 106:	687b      	ldr	r3, [r7, #4]
 108:	685b      	ldr	r3, [r3, #4]
 10a:	6adb      	ldr	r3, [r3, #44]	; 0x2c
 10c:	687a      	ldr	r2, [r7, #4]
 10e:	7b12      	ldrb	r2, [r2, #12]
 110:	0011      	movs	r1, r2
 112:	2201      	movs	r2, #1
 114:	408a      	lsls	r2, r1
 116:	43d2      	mvns	r2, r2
 118:	401a      	ands	r2, r3
 11a:	003b      	movs	r3, r7
 11c:	781b      	ldrb	r3, [r3, #0]
 11e:	069b      	lsls	r3, r3, #26
 120:	0fdb      	lsrs	r3, r3, #31
 122:	b2db      	uxtb	r3, r3
 124:	0019      	movs	r1, r3
 126:	687b      	ldr	r3, [r7, #4]
 128:	7b1b      	ldrb	r3, [r3, #12]
 12a:	4099      	lsls	r1, r3
 12c:	000b      	movs	r3, r1
 12e:	0019      	movs	r1, r3
 130:	687b      	ldr	r3, [r7, #4]
 132:	685b      	ldr	r3, [r3, #4]
 134:	430a      	orrs	r2, r1
 136:	62da      	str	r2, [r3, #44]	; 0x2c
 138:	003b      	movs	r3, r7
 13a:	785b      	ldrb	r3, [r3, #1]
 13c:	075b      	lsls	r3, r3, #29
 13e:	0f5b      	lsrs	r3, r3, #29
 140:	b2da      	uxtb	r2, r3
 142:	687b      	ldr	r3, [r7, #4]
 144:	681b      	ldr	r3, [r3, #0]
 146:	601a      	str	r2, [r3, #0]
 148:	687b      	ldr	r3, [r7, #4]
 14a:	200e      	movs	r0, #14
 14c:	5618      	ldrsb	r0, [r3, r0]
 14e:	003b      	movs	r3, r7
 150:	785b      	ldrb	r3, [r3, #1]
 152:	071b      	lsls	r3, r3, #28
 154:	0fdb      	lsrs	r3, r3, #31
 156:	b2db      	uxtb	r3, r3
 158:	001a      	movs	r2, r3
 15a:	2103      	movs	r1, #3
 15c:	f7ff fffe 	bl	0 <nvic_configure_interrupt>
 160:	46c0      	nop			; (mov r8, r8)
 162:	46bd      	mov	sp, r7
 164:	b002      	add	sp, #8
 166:	bd80      	pop	{r7, pc}

Disassembly of section .text.gpio_digital_read:

00000000 <gpio_digital_read>:
   0:	b580      	push	{r7, lr}
   2:	b082      	sub	sp, #8
   4:	af00      	add	r7, sp, #0
   6:	6078      	str	r0, [r7, #4]
   8:	687b      	ldr	r3, [r7, #4]
   a:	685b      	ldr	r3, [r3, #4]
   c:	685b      	ldr	r3, [r3, #4]
   e:	687a      	ldr	r2, [r7, #4]
  10:	7b12      	ldrb	r2, [r2, #12]
  12:	40d3      	lsrs	r3, r2
  14:	b2db      	uxtb	r3, r3
  16:	2201      	movs	r2, #1
  18:	4013      	ands	r3, r2
  1a:	b2db      	uxtb	r3, r3
  1c:	0018      	movs	r0, r3
  1e:	46bd      	mov	sp, r7
  20:	b002      	add	sp, #8
  22:	bd80      	pop	{r7, pc}

Disassembly of section .text.gpio_digital_write:

00000000 <gpio_digital_write>:
   0:	b580      	push	{r7, lr}
   2:	b082      	sub	sp, #8
   4:	af00      	add	r7, sp, #0
   6:	6078      	str	r0, [r7, #4]
   8:	000a      	movs	r2, r1
   a:	1cfb      	adds	r3, r7, #3
   c:	701a      	strb	r2, [r3, #0]
   e:	687b      	ldr	r3, [r7, #4]
  10:	685b      	ldr	r3, [r3, #4]
  12:	689b      	ldr	r3, [r3, #8]
  14:	687a      	ldr	r2, [r7, #4]
  16:	7b12      	ldrb	r2, [r2, #12]
  18:	0011      	movs	r1, r2
  1a:	2201      	movs	r2, #1
  1c:	408a      	lsls	r2, r1
  1e:	43d2      	mvns	r2, r2
  20:	401a      	ands	r2, r3
  22:	1cfb      	adds	r3, r7, #3
  24:	781b      	ldrb	r3, [r3, #0]
  26:	6879      	ldr	r1, [r7, #4]
  28:	7b09      	ldrb	r1, [r1, #12]
  2a:	408b      	lsls	r3, r1
  2c:	0019      	movs	r1, r3
  2e:	687b      	ldr	r3, [r7, #4]
  30:	685b      	ldr	r3, [r3, #4]
  32:	430a      	orrs	r2, r1
  34:	609a      	str	r2, [r3, #8]
  36:	46c0      	nop			; (mov r8, r8)
  38:	46bd      	mov	sp, r7
  3a:	b002      	add	sp, #8
  3c:	bd80      	pop	{r7, pc}

Disassembly of section .text.gpio_clear_interrupt:

00000000 <gpio_clear_interrupt>:
   0:	b580      	push	{r7, lr}
   2:	b082      	sub	sp, #8
   4:	af00      	add	r7, sp, #0
   6:	6078      	str	r0, [r7, #4]
   8:	687b      	ldr	r3, [r7, #4]
   a:	689b      	ldr	r3, [r3, #8]
   c:	691a      	ldr	r2, [r3, #16]
   e:	687b      	ldr	r3, [r7, #4]
  10:	7b1b      	ldrb	r3, [r3, #12]
  12:	0019      	movs	r1, r3
  14:	2301      	movs	r3, #1
  16:	408b      	lsls	r3, r1
  18:	43db      	mvns	r3, r3
  1a:	0019      	movs	r1, r3
  1c:	687b      	ldr	r3, [r7, #4]
  1e:	689b      	ldr	r3, [r3, #8]
  20:	400a      	ands	r2, r1
  22:	611a      	str	r2, [r3, #16]
  24:	46c0      	nop			; (mov r8, r8)
  26:	46bd      	mov	sp, r7
  28:	b002      	add	sp, #8
  2a:	bd80      	pop	{r7, pc}

Disassembly of section .text.gpio_set_interrupt_handler:

00000000 <gpio_set_interrupt_handler>:
   0:	b580      	push	{r7, lr}
   2:	b084      	sub	sp, #16
   4:	af00      	add	r7, sp, #0
   6:	60f8      	str	r0, [r7, #12]
   8:	2008      	movs	r0, #8
   a:	183b      	adds	r3, r7, r0
   c:	7019      	strb	r1, [r3, #0]
   e:	607a      	str	r2, [r7, #4]
  10:	0001      	movs	r1, r0
  12:	187b      	adds	r3, r7, r1
  14:	781b      	ldrb	r3, [r3, #0]
  16:	079b      	lsls	r3, r3, #30
  18:	0fdb      	lsrs	r3, r3, #31
  1a:	b2da      	uxtb	r2, r3
  1c:	68fb      	ldr	r3, [r7, #12]
  1e:	685b      	ldr	r3, [r3, #4]
  20:	631a      	str	r2, [r3, #48]	; 0x30
  22:	187b      	adds	r3, r7, r1
  24:	781b      	ldrb	r3, [r3, #0]
  26:	075b      	lsls	r3, r3, #29
  28:	0fdb      	lsrs	r3, r3, #31
  2a:	b2da      	uxtb	r2, r3
  2c:	68fb      	ldr	r3, [r7, #12]
  2e:	685b      	ldr	r3, [r3, #4]
  30:	635a      	str	r2, [r3, #52]	; 0x34
  32:	187b      	adds	r3, r7, r1
  34:	781b      	ldrb	r3, [r3, #0]
  36:	071b      	lsls	r3, r3, #28
  38:	0fdb      	lsrs	r3, r3, #31
  3a:	b2da      	uxtb	r2, r3
  3c:	68fb      	ldr	r3, [r7, #12]
  3e:	685b      	ldr	r3, [r3, #4]
  40:	639a      	str	r2, [r3, #56]	; 0x38
  42:	187b      	adds	r3, r7, r1
  44:	781b      	ldrb	r3, [r3, #0]
  46:	06db      	lsls	r3, r3, #27
  48:	0fdb      	lsrs	r3, r3, #31
  4a:	b2da      	uxtb	r2, r3
  4c:	68fb      	ldr	r3, [r7, #12]
  4e:	685b      	ldr	r3, [r3, #4]
  50:	63da      	str	r2, [r3, #60]	; 0x3c
  52:	68fb      	ldr	r3, [r7, #12]
  54:	7b5b      	ldrb	r3, [r3, #13]
  56:	001a      	movs	r2, r3
  58:	4b03      	ldr	r3, [pc, #12]	; (68 <gpio_set_interrupt_handler+0x68>)
  5a:	0092      	lsls	r2, r2, #2
  5c:	6879      	ldr	r1, [r7, #4]
  5e:	50d1      	str	r1, [r2, r3]
  60:	46c0      	nop			; (mov r8, r8)
  62:	46bd      	mov	sp, r7
  64:	b004      	add	sp, #16
  66:	bd80      	pop	{r7, pc}
  68:	00000000 	.word	0x00000000

Disassembly of section .text.__handle_gpio_interrupt:

00000000 <__handle_gpio_interrupt>:
   0:	b580      	push	{r7, lr}
   2:	b084      	sub	sp, #16
   4:	af00      	add	r7, sp, #0
   6:	6078      	str	r0, [r7, #4]
   8:	6039      	str	r1, [r7, #0]
   a:	687b      	ldr	r3, [r7, #4]
   c:	60fb      	str	r3, [r7, #12]
   e:	e03e      	b.n	8e <__handle_gpio_interrupt+0x8e>
  10:	4a23      	ldr	r2, [pc, #140]	; (a0 <__handle_gpio_interrupt+0xa0>)
  12:	68fb      	ldr	r3, [r7, #12]
  14:	011b      	lsls	r3, r3, #4
  16:	18d3      	adds	r3, r2, r3
  18:	3308      	adds	r3, #8
  1a:	681b      	ldr	r3, [r3, #0]
  1c:	681b      	ldr	r3, [r3, #0]
  1e:	4920      	ldr	r1, [pc, #128]	; (a0 <__handle_gpio_interrupt+0xa0>)
  20:	68fa      	ldr	r2, [r7, #12]
  22:	0112      	lsls	r2, r2, #4
  24:	188a      	adds	r2, r1, r2
  26:	320c      	adds	r2, #12
  28:	7812      	ldrb	r2, [r2, #0]
  2a:	0011      	movs	r1, r2
  2c:	2201      	movs	r2, #1
  2e:	408a      	lsls	r2, r1
  30:	4013      	ands	r3, r2
  32:	d029      	beq.n	88 <__handle_gpio_interrupt+0x88>
  34:	4b1b      	ldr	r3, [pc, #108]	; (a4 <__handle_gpio_interrupt+0xa4>)
  36:	68fa      	ldr	r2, [r7, #12]
  38:	0092      	lsls	r2, r2, #2
  3a:	58d3      	ldr	r3, [r2, r3]
  3c:	2b00      	cmp	r3, #0
  3e:	d009      	beq.n	54 <__handle_gpio_interrupt+0x54>
  40:	4b18      	ldr	r3, [pc, #96]	; (a4 <__handle_gpio_interrupt+0xa4>)
  42:	68fa      	ldr	r2, [r7, #12]
  44:	0092      	lsls	r2, r2, #2
  46:	58d3      	ldr	r3, [r2, r3]
  48:	68fa      	ldr	r2, [r7, #12]
  4a:	0111      	lsls	r1, r2, #4
  4c:	4a14      	ldr	r2, [pc, #80]	; (a0 <__handle_gpio_interrupt+0xa0>)
  4e:	188a      	adds	r2, r1, r2
  50:	0010      	movs	r0, r2
  52:	4798      	blx	r3
  54:	4a12      	ldr	r2, [pc, #72]	; (a0 <__handle_gpio_interrupt+0xa0>)
  56:	68fb      	ldr	r3, [r7, #12]
  58:	011b      	lsls	r3, r3, #4
  5a:	18d3      	adds	r3, r2, r3
  5c:	3308      	adds	r3, #8
  5e:	681b      	ldr	r3, [r3, #0]
  60:	691a      	ldr	r2, [r3, #16]
  62:	490f      	ldr	r1, [pc, #60]	; (a0 <__handle_gpio_interrupt+0xa0>)
  64:	68fb      	ldr	r3, [r7, #12]
  66:	011b      	lsls	r3, r3, #4
  68:	18cb      	adds	r3, r1, r3
  6a:	330c      	adds	r3, #12
  6c:	781b      	ldrb	r3, [r3, #0]
  6e:	0019      	movs	r1, r3
  70:	2301      	movs	r3, #1
  72:	408b      	lsls	r3, r1
  74:	43db      	mvns	r3, r3
  76:	0018      	movs	r0, r3
  78:	4909      	ldr	r1, [pc, #36]	; (a0 <__handle_gpio_interrupt+0xa0>)
  7a:	68fb      	ldr	r3, [r7, #12]
  7c:	011b      	lsls	r3, r3, #4
  7e:	18cb      	adds	r3, r1, r3
  80:	3308      	adds	r3, #8
  82:	681b      	ldr	r3, [r3, #0]
  84:	4002      	ands	r2, r0
  86:	611a      	str	r2, [r3, #16]
  88:	68fb      	ldr	r3, [r7, #12]
  8a:	3301      	adds	r3, #1
  8c:	60fb      	str	r3, [r7, #12]
  8e:	68fa      	ldr	r2, [r7, #12]
  90:	683b      	ldr	r3, [r7, #0]
  92:	429a      	cmp	r2, r3
  94:	d9bc      	bls.n	10 <__handle_gpio_interrupt+0x10>
  96:	46c0      	nop			; (mov r8, r8)
  98:	46c0      	nop			; (mov r8, r8)
  9a:	46bd      	mov	sp, r7
  9c:	b004      	add	sp, #16
  9e:	bd80      	pop	{r7, pc}
	...

Disassembly of section .text.GpioPort0_Handler:

00000000 <GpioPort0_Handler>:
   0:	b580      	push	{r7, lr}
   2:	af00      	add	r7, sp, #0
   4:	2102      	movs	r1, #2
   6:	2000      	movs	r0, #0
   8:	f7ff fffe 	bl	0 <GpioPort0_Handler>
   c:	2000      	movs	r0, #0
   e:	f7ff fffe 	bl	0 <nvic_clear_interrupt>
  12:	46c0      	nop			; (mov r8, r8)
  14:	46bd      	mov	sp, r7
  16:	bd80      	pop	{r7, pc}

Disassembly of section .text.GpioPort1_Handler:

00000000 <GpioPort1_Handler>:
   0:	b580      	push	{r7, lr}
   2:	af00      	add	r7, sp, #0
   4:	2104      	movs	r1, #4
   6:	2003      	movs	r0, #3
   8:	f7ff fffe 	bl	0 <GpioPort1_Handler>
   c:	2001      	movs	r0, #1
   e:	f7ff fffe 	bl	0 <nvic_clear_interrupt>
  12:	46c0      	nop			; (mov r8, r8)
  14:	46bd      	mov	sp, r7
  16:	bd80      	pop	{r7, pc}

Disassembly of section .text.GpioPort2_Handler:

00000000 <GpioPort2_Handler>:
   0:	b580      	push	{r7, lr}
   2:	af00      	add	r7, sp, #0
   4:	2109      	movs	r1, #9
   6:	2005      	movs	r0, #5
   8:	f7ff fffe 	bl	0 <GpioPort2_Handler>
   c:	2002      	movs	r0, #2
   e:	f7ff fffe 	bl	0 <nvic_clear_interrupt>
  12:	46c0      	nop			; (mov r8, r8)
  14:	46bd      	mov	sp, r7
  16:	bd80      	pop	{r7, pc}

Disassembly of section .text.GpioPort3_Handler:

00000000 <GpioPort3_Handler>:
   0:	b580      	push	{r7, lr}
   2:	af00      	add	r7, sp, #0
   4:	210f      	movs	r1, #15
   6:	200a      	movs	r0, #10
   8:	f7ff fffe 	bl	0 <GpioPort3_Handler>
   c:	2003      	movs	r0, #3
   e:	f7ff fffe 	bl	0 <nvic_clear_interrupt>
  12:	46c0      	nop			; (mov r8, r8)
  14:	46bd      	mov	sp, r7
  16:	bd80      	pop	{r7, pc}

Disassembly of section .text.peripheral_enable_gpio:

00000000 <peripheral_enable_gpio>:
   0:	b580      	push	{r7, lr}
   2:	af00      	add	r7, sp, #0
   4:	4b11      	ldr	r3, [pc, #68]	; (4c <peripheral_enable_gpio+0x4c>)
   6:	22ff      	movs	r2, #255	; 0xff
   8:	601a      	str	r2, [r3, #0]
   a:	4b11      	ldr	r3, [pc, #68]	; (50 <peripheral_enable_gpio+0x50>)
   c:	22ff      	movs	r2, #255	; 0xff
   e:	601a      	str	r2, [r3, #0]
  10:	4b10      	ldr	r3, [pc, #64]	; (54 <peripheral_enable_gpio+0x54>)
  12:	22ff      	movs	r2, #255	; 0xff
  14:	601a      	str	r2, [r3, #0]
  16:	4b10      	ldr	r3, [pc, #64]	; (58 <peripheral_enable_gpio+0x58>)
  18:	22ff      	movs	r2, #255	; 0xff
  1a:	601a      	str	r2, [r3, #0]
  1c:	4b0b      	ldr	r3, [pc, #44]	; (4c <peripheral_enable_gpio+0x4c>)
  1e:	2200      	movs	r2, #0
  20:	62da      	str	r2, [r3, #44]	; 0x2c
  22:	4b0b      	ldr	r3, [pc, #44]	; (50 <peripheral_enable_gpio+0x50>)
  24:	2200      	movs	r2, #0
  26:	62da      	str	r2, [r3, #44]	; 0x2c
  28:	4b0a      	ldr	r3, [pc, #40]	; (54 <peripheral_enable_gpio+0x54>)
  2a:	2200      	movs	r2, #0
  2c:	62da      	str	r2, [r3, #44]	; 0x2c
  2e:	4b0a      	ldr	r3, [pc, #40]	; (58 <peripheral_enable_gpio+0x58>)
  30:	2200      	movs	r2, #0
  32:	62da      	str	r2, [r3, #44]	; 0x2c
  34:	f7ff fffe 	bl	0 <peripheral_get_enabled>
  38:	0002      	movs	r2, r0
  3a:	2380      	movs	r3, #128	; 0x80
  3c:	055b      	lsls	r3, r3, #21
  3e:	4313      	orrs	r3, r2
  40:	0018      	movs	r0, r3
  42:	f7ff fffe 	bl	0 <peripheral_set_enabled>
  46:	46c0      	nop			; (mov r8, r8)
  48:	46bd      	mov	sp, r7
  4a:	bd80      	pop	{r7, pc}
  4c:	40020d00 	.word	0x40020d00
  50:	40020d40 	.word	0x40020d40
  54:	40020d80 	.word	0x40020d80
  58:	40020dc0 	.word	0x40020dc0
