
blink.elf:     file format elf32-littlearm


Disassembly of section .text:

00000000 <__isr_vector>:
   0:	20001000 	.word	0x20001000
   4:	000000c1 	.word	0x000000c1
   8:	000000db 	.word	0x000000db
   c:	000000dd 	.word	0x000000dd
	...
  2c:	000000de 	.word	0x000000de
	...
  38:	000000e1 	.word	0x000000e1
  3c:	000000e3 	.word	0x000000e3
  40:	000000e5 	.word	0x000000e5
  44:	000000e5 	.word	0x000000e5
  48:	000000e5 	.word	0x000000e5
  4c:	000000e5 	.word	0x000000e5
  50:	000000e5 	.word	0x000000e5
  54:	000000e5 	.word	0x000000e5
  58:	000000e5 	.word	0x000000e5
  5c:	000000e5 	.word	0x000000e5
  60:	000000e5 	.word	0x000000e5
  64:	000000e5 	.word	0x000000e5
  68:	000000e5 	.word	0x000000e5
  6c:	000000e5 	.word	0x000000e5
  70:	000000e5 	.word	0x000000e5
  74:	000000e5 	.word	0x000000e5
  78:	000000e5 	.word	0x000000e5
  7c:	000000e5 	.word	0x000000e5
  80:	000000e5 	.word	0x000000e5
  84:	000000e5 	.word	0x000000e5
  88:	000000e5 	.word	0x000000e5
  8c:	000000e5 	.word	0x000000e5
  90:	000000e5 	.word	0x000000e5
  94:	000000e5 	.word	0x000000e5
  98:	000000e5 	.word	0x000000e5
  9c:	000000e5 	.word	0x000000e5
  a0:	000000e5 	.word	0x000000e5
  a4:	000000e5 	.word	0x000000e5
  a8:	000000e5 	.word	0x000000e5
  ac:	000000e5 	.word	0x000000e5
  b0:	000000e5 	.word	0x000000e5
  b4:	000000e5 	.word	0x000000e5
  b8:	000000e5 	.word	0x000000e5
  bc:	000000e5 	.word	0x000000e5

000000c0 <Reset_Handler>:
  c0:	4809      	ldr	r0, [pc, #36]	; (e8 <Default_Handler+0x4>)
  c2:	4a0a      	ldr	r2, [pc, #40]	; (ec <Default_Handler+0x8>)
  c4:	2100      	movs	r1, #0
  c6:	a100      	add	r1, pc, #0	; (adr r1, c8 <Reset_Handler+0x8>)
  c8:	4281      	cmp	r1, r0
  ca:	d900      	bls.n	ce <RamCode>
  cc:	4402      	add	r2, r0

000000ce <RamCode>:
  ce:	4808      	ldr	r0, [pc, #32]	; (f0 <Default_Handler+0xc>)
  d0:	6002      	str	r2, [r0, #0]
  d2:	f000 f83f 	bl	154 <SystemInit>
  d6:	f000 f80d 	bl	f4 <__main>

000000da <NMI_Handler>:
  da:	e7fe      	b.n	da <NMI_Handler>

000000dc <HardFault_Handler>:
  dc:	e7fe      	b.n	dc <HardFault_Handler>

000000de <SVC_Handler>:
  de:	e7fe      	b.n	de <SVC_Handler>

000000e0 <PendSV_Handler>:
  e0:	e7fe      	b.n	e0 <PendSV_Handler>

000000e2 <SysTick_Handler>:
  e2:	e7fe      	b.n	e2 <SysTick_Handler>

000000e4 <Default_Handler>:
  e4:	e7fe      	b.n	e4 <Default_Handler>
  e6:	0000      	.short	0x0000
  e8:	20000000 	.word	0x20000000
  ec:	00000000 	.word	0x00000000
  f0:	e000ed08 	.word	0xe000ed08

000000f4 <__main>:
  f4:	b580      	push	{r7, lr}
  f6:	b082      	sub	sp, #8
  f8:	af00      	add	r7, sp, #0
  fa:	4b11      	ldr	r3, [pc, #68]	; (140 <__main+0x4c>)
  fc:	607b      	str	r3, [r7, #4]
  fe:	4b11      	ldr	r3, [pc, #68]	; (144 <__main+0x50>)
 100:	603b      	str	r3, [r7, #0]
 102:	e007      	b.n	114 <__main+0x20>
 104:	687a      	ldr	r2, [r7, #4]
 106:	1d13      	adds	r3, r2, #4
 108:	607b      	str	r3, [r7, #4]
 10a:	683b      	ldr	r3, [r7, #0]
 10c:	1d19      	adds	r1, r3, #4
 10e:	6039      	str	r1, [r7, #0]
 110:	6812      	ldr	r2, [r2, #0]
 112:	601a      	str	r2, [r3, #0]
 114:	683a      	ldr	r2, [r7, #0]
 116:	4b0c      	ldr	r3, [pc, #48]	; (148 <__main+0x54>)
 118:	429a      	cmp	r2, r3
 11a:	d3f3      	bcc.n	104 <__main+0x10>
 11c:	4b0b      	ldr	r3, [pc, #44]	; (14c <__main+0x58>)
 11e:	603b      	str	r3, [r7, #0]
 120:	e004      	b.n	12c <__main+0x38>
 122:	683b      	ldr	r3, [r7, #0]
 124:	1d1a      	adds	r2, r3, #4
 126:	603a      	str	r2, [r7, #0]
 128:	2200      	movs	r2, #0
 12a:	601a      	str	r2, [r3, #0]
 12c:	683a      	ldr	r2, [r7, #0]
 12e:	4b08      	ldr	r3, [pc, #32]	; (150 <__main+0x5c>)
 130:	429a      	cmp	r2, r3
 132:	d3f6      	bcc.n	122 <__main+0x2e>
 134:	f000 f80e 	bl	154 <SystemInit>
 138:	f000 f820 	bl	17c <main>
 13c:	bf30      	wfi
 13e:	e7fd      	b.n	13c <__main+0x48>
 140:	00000214 	.word	0x00000214
 144:	20000000 	.word	0x20000000
 148:	20000000 	.word	0x20000000
 14c:	20000000 	.word	0x20000000
 150:	20000008 	.word	0x20000008

00000154 <SystemInit>:
 154:	b580      	push	{r7, lr}
 156:	af00      	add	r7, sp, #0
 158:	4b05      	ldr	r3, [pc, #20]	; (170 <SystemInit+0x1c>)
 15a:	881b      	ldrh	r3, [r3, #0]
 15c:	b29a      	uxth	r2, r3
 15e:	4b05      	ldr	r3, [pc, #20]	; (174 <SystemInit+0x20>)
 160:	601a      	str	r2, [r3, #0]
 162:	4b05      	ldr	r3, [pc, #20]	; (178 <SystemInit+0x24>)
 164:	2200      	movs	r2, #0
 166:	601a      	str	r2, [r3, #0]
 168:	46c0      	nop			; (mov r8, r8)
 16a:	46bd      	mov	sp, r7
 16c:	bd80      	pop	{r7, pc}
 16e:	46c0      	nop			; (mov r8, r8)
 170:	00100c08 	.word	0x00100c08
 174:	4000200c 	.word	0x4000200c
 178:	40002000 	.word	0x40002000

0000017c <main>:
 17c:	b580      	push	{r7, lr}
 17e:	af00      	add	r7, sp, #0
 180:	4a22      	ldr	r2, [pc, #136]	; (20c <main+0x90>)
 182:	6a13      	ldr	r3, [r2, #32]
 184:	2180      	movs	r1, #128	; 0x80
 186:	0549      	lsls	r1, r1, #21
 188:	430b      	orrs	r3, r1
 18a:	6213      	str	r3, [r2, #32]
 18c:	4a1f      	ldr	r2, [pc, #124]	; (20c <main+0x90>)
 18e:	6a13      	ldr	r3, [r2, #32]
 190:	2180      	movs	r1, #128	; 0x80
 192:	0449      	lsls	r1, r1, #17
 194:	430b      	orrs	r3, r1
 196:	6213      	str	r3, [r2, #32]
 198:	4a1d      	ldr	r2, [pc, #116]	; (210 <main+0x94>)
 19a:	2380      	movs	r3, #128	; 0x80
 19c:	005b      	lsls	r3, r3, #1
 19e:	2100      	movs	r1, #0
 1a0:	50d1      	str	r1, [r2, r3]
 1a2:	4a1b      	ldr	r2, [pc, #108]	; (210 <main+0x94>)
 1a4:	23a0      	movs	r3, #160	; 0xa0
 1a6:	005b      	lsls	r3, r3, #1
 1a8:	2100      	movs	r1, #0
 1aa:	50d1      	str	r1, [r2, r3]
 1ac:	4a18      	ldr	r2, [pc, #96]	; (210 <main+0x94>)
 1ae:	23c0      	movs	r3, #192	; 0xc0
 1b0:	005b      	lsls	r3, r3, #1
 1b2:	2100      	movs	r1, #0
 1b4:	50d1      	str	r1, [r2, r3]
 1b6:	4a16      	ldr	r2, [pc, #88]	; (210 <main+0x94>)
 1b8:	23e0      	movs	r3, #224	; 0xe0
 1ba:	005b      	lsls	r3, r3, #1
 1bc:	2100      	movs	r1, #0
 1be:	50d1      	str	r1, [r2, r3]
 1c0:	4a13      	ldr	r2, [pc, #76]	; (210 <main+0x94>)
 1c2:	2384      	movs	r3, #132	; 0x84
 1c4:	005b      	lsls	r3, r3, #1
 1c6:	210e      	movs	r1, #14
 1c8:	50d1      	str	r1, [r2, r3]
 1ca:	4a11      	ldr	r2, [pc, #68]	; (210 <main+0x94>)
 1cc:	23a4      	movs	r3, #164	; 0xa4
 1ce:	005b      	lsls	r3, r3, #1
 1d0:	2130      	movs	r1, #48	; 0x30
 1d2:	50d1      	str	r1, [r2, r3]
 1d4:	4a0e      	ldr	r2, [pc, #56]	; (210 <main+0x94>)
 1d6:	23c4      	movs	r3, #196	; 0xc4
 1d8:	005b      	lsls	r3, r3, #1
 1da:	21f8      	movs	r1, #248	; 0xf8
 1dc:	50d1      	str	r1, [r2, r3]
 1de:	4a0c      	ldr	r2, [pc, #48]	; (210 <main+0x94>)
 1e0:	23e4      	movs	r3, #228	; 0xe4
 1e2:	005b      	lsls	r3, r3, #1
 1e4:	217e      	movs	r1, #126	; 0x7e
 1e6:	50d1      	str	r1, [r2, r3]
 1e8:	4908      	ldr	r1, [pc, #32]	; (20c <main+0x90>)
 1ea:	2237      	movs	r2, #55	; 0x37
 1ec:	5c8b      	ldrb	r3, [r1, r2]
 1ee:	200c      	movs	r0, #12
 1f0:	4383      	bics	r3, r0
 1f2:	1c18      	adds	r0, r3, #0
 1f4:	2308      	movs	r3, #8
 1f6:	4303      	orrs	r3, r0
 1f8:	548b      	strb	r3, [r1, r2]
 1fa:	4a04      	ldr	r2, [pc, #16]	; (20c <main+0x90>)
 1fc:	6b53      	ldr	r3, [r2, #52]	; 0x34
 1fe:	2180      	movs	r1, #128	; 0x80
 200:	0489      	lsls	r1, r1, #18
 202:	430b      	orrs	r3, r1
 204:	6353      	str	r3, [r2, #52]	; 0x34
 206:	46c0      	nop			; (mov r8, r8)
 208:	e7fd      	b.n	206 <main+0x8a>
 20a:	46c0      	nop			; (mov r8, r8)
 20c:	40002000 	.word	0x40002000
 210:	40020c00 	.word	0x40020c00
