
blink.elf:     file format elf32-littlearm


Disassembly of section .text:

00000000 <__isr_vector>:
   0:	20001000 	.word	0x20001000
   4:	000000c1 	.word	0x000000c1
   8:	000000db 	.word	0x000000db
   c:	000000dd 	.word	0x000000dd
	...
  2c:	000000de 	.word	0x000000de
	...
  38:	000000e1 	.word	0x000000e1
  3c:	000000e3 	.word	0x000000e3
  40:	000000e5 	.word	0x000000e5
  44:	000000e5 	.word	0x000000e5
  48:	000000e5 	.word	0x000000e5
  4c:	000000e5 	.word	0x000000e5
  50:	000000e5 	.word	0x000000e5
  54:	000000e5 	.word	0x000000e5
  58:	000000e5 	.word	0x000000e5
  5c:	000000e5 	.word	0x000000e5
  60:	000000e5 	.word	0x000000e5
  64:	000000e5 	.word	0x000000e5
  68:	000000e5 	.word	0x000000e5
  6c:	000000e5 	.word	0x000000e5
  70:	000000e5 	.word	0x000000e5
  74:	000000e5 	.word	0x000000e5
  78:	000000e5 	.word	0x000000e5
  7c:	000000e5 	.word	0x000000e5
  80:	000000e5 	.word	0x000000e5
  84:	000000e5 	.word	0x000000e5
  88:	000000e5 	.word	0x000000e5
  8c:	000000e5 	.word	0x000000e5
  90:	000000e5 	.word	0x000000e5
  94:	000000e5 	.word	0x000000e5
  98:	000000e5 	.word	0x000000e5
  9c:	000000e5 	.word	0x000000e5
  a0:	000000e5 	.word	0x000000e5
  a4:	000000e5 	.word	0x000000e5
  a8:	000000e5 	.word	0x000000e5
  ac:	000000e5 	.word	0x000000e5
  b0:	000000e5 	.word	0x000000e5
  b4:	000000e5 	.word	0x000000e5
  b8:	000000e5 	.word	0x000000e5
  bc:	000000e5 	.word	0x000000e5

000000c0 <Reset_Handler>:
  c0:	4809      	ldr	r0, [pc, #36]	; (e8 <Default_Handler+0x4>)
  c2:	4a0a      	ldr	r2, [pc, #40]	; (ec <Default_Handler+0x8>)
  c4:	2100      	movs	r1, #0
  c6:	a100      	add	r1, pc, #0	; (adr r1, c8 <Reset_Handler+0x8>)
  c8:	4281      	cmp	r1, r0
  ca:	d900      	bls.n	ce <RamCode>
  cc:	4402      	add	r2, r0

000000ce <RamCode>:
  ce:	4808      	ldr	r0, [pc, #32]	; (f0 <Default_Handler+0xc>)
  d0:	6002      	str	r2, [r0, #0]
  d2:	f000 f80f 	bl	f4 <SystemInit>
  d6:	f000 f81b 	bl	110 <__main>

000000da <NMI_Handler>:
  da:	e7fe      	b.n	da <NMI_Handler>

000000dc <HardFault_Handler>:
  dc:	e7fe      	b.n	dc <HardFault_Handler>

000000de <SVC_Handler>:
  de:	e7fe      	b.n	de <SVC_Handler>

000000e0 <PendSV_Handler>:
  e0:	e7fe      	b.n	e0 <PendSV_Handler>

000000e2 <SysTick_Handler>:
  e2:	e7fe      	b.n	e2 <SysTick_Handler>

000000e4 <Default_Handler>:
  e4:	e7fe      	b.n	e4 <Default_Handler>
  e6:	0000      	.short	0x0000
  e8:	20000000 	.word	0x20000000
  ec:	00000000 	.word	0x00000000
  f0:	e000ed08 	.word	0xe000ed08

000000f4 <SystemInit>:
  f4:	4b03      	ldr	r3, [pc, #12]	; (104 <SystemInit+0x10>)
  f6:	881a      	ldrh	r2, [r3, #0]
  f8:	4b03      	ldr	r3, [pc, #12]	; (108 <SystemInit+0x14>)
  fa:	601a      	str	r2, [r3, #0]
  fc:	2200      	movs	r2, #0
  fe:	4b03      	ldr	r3, [pc, #12]	; (10c <SystemInit+0x18>)
 100:	601a      	str	r2, [r3, #0]
 102:	4770      	bx	lr
 104:	00100c08 	.word	0x00100c08
 108:	4000200c 	.word	0x4000200c
 10c:	40002000 	.word	0x40002000

00000110 <__main>:
 110:	b5f8      	push	{r3, r4, r5, r6, r7, lr}
 112:	4836      	ldr	r0, [pc, #216]	; (1ec <__main+0xdc>)
 114:	4b36      	ldr	r3, [pc, #216]	; (1f0 <__main+0xe0>)
 116:	4298      	cmp	r0, r3
 118:	d21d      	bcs.n	156 <__main+0x46>
 11a:	4936      	ldr	r1, [pc, #216]	; (1f4 <__main+0xe4>)
 11c:	3b01      	subs	r3, #1
 11e:	000a      	movs	r2, r1
 120:	4302      	orrs	r2, r0
 122:	0006      	movs	r6, r0
 124:	1a1b      	subs	r3, r3, r0
 126:	0752      	lsls	r2, r2, #29
 128:	d156      	bne.n	1d8 <__main+0xc8>
 12a:	2b2b      	cmp	r3, #43	; 0x2b
 12c:	d954      	bls.n	1d8 <__main+0xc8>
 12e:	089a      	lsrs	r2, r3, #2
 130:	000b      	movs	r3, r1
 132:	3201      	adds	r2, #1
 134:	0857      	lsrs	r7, r2, #1
 136:	00ff      	lsls	r7, r7, #3
 138:	19cf      	adds	r7, r1, r7
 13a:	cb30      	ldmia	r3!, {r4, r5}
 13c:	c630      	stmia	r6!, {r4, r5}
 13e:	42bb      	cmp	r3, r7
 140:	d1fb      	bne.n	13a <__main+0x2a>
 142:	2301      	movs	r3, #1
 144:	0014      	movs	r4, r2
 146:	439c      	bics	r4, r3
 148:	00a3      	lsls	r3, r4, #2
 14a:	18c9      	adds	r1, r1, r3
 14c:	18c0      	adds	r0, r0, r3
 14e:	42a2      	cmp	r2, r4
 150:	d001      	beq.n	156 <__main+0x46>
 152:	680b      	ldr	r3, [r1, #0]
 154:	6003      	str	r3, [r0, #0]
 156:	4b28      	ldr	r3, [pc, #160]	; (1f8 <__main+0xe8>)
 158:	4e28      	ldr	r6, [pc, #160]	; (1fc <__main+0xec>)
 15a:	42b3      	cmp	r3, r6
 15c:	d236      	bcs.n	1cc <__main+0xbc>
 15e:	1e71      	subs	r1, r6, #1
 160:	1ac9      	subs	r1, r1, r3
 162:	0888      	lsrs	r0, r1, #2
 164:	075a      	lsls	r2, r3, #29
 166:	3001      	adds	r0, #1
 168:	0fd2      	lsrs	r2, r2, #31
 16a:	2917      	cmp	r1, #23
 16c:	d917      	bls.n	19e <__main+0x8e>
 16e:	0019      	movs	r1, r3
 170:	2a00      	cmp	r2, #0
 172:	d002      	beq.n	17a <__main+0x6a>
 174:	2100      	movs	r1, #0
 176:	6019      	str	r1, [r3, #0]
 178:	4921      	ldr	r1, [pc, #132]	; (200 <__main+0xf0>)
 17a:	2400      	movs	r4, #0
 17c:	2500      	movs	r5, #0
 17e:	1a80      	subs	r0, r0, r2
 180:	0092      	lsls	r2, r2, #2
 182:	189b      	adds	r3, r3, r2
 184:	0842      	lsrs	r2, r0, #1
 186:	00d2      	lsls	r2, r2, #3
 188:	18d2      	adds	r2, r2, r3
 18a:	c330      	stmia	r3!, {r4, r5}
 18c:	4293      	cmp	r3, r2
 18e:	d1fc      	bne.n	18a <__main+0x7a>
 190:	2301      	movs	r3, #1
 192:	0002      	movs	r2, r0
 194:	439a      	bics	r2, r3
 196:	0093      	lsls	r3, r2, #2
 198:	18cb      	adds	r3, r1, r3
 19a:	4290      	cmp	r0, r2
 19c:	d016      	beq.n	1cc <__main+0xbc>
 19e:	2200      	movs	r2, #0
 1a0:	0019      	movs	r1, r3
 1a2:	c104      	stmia	r1!, {r2}
 1a4:	42b1      	cmp	r1, r6
 1a6:	d211      	bcs.n	1cc <__main+0xbc>
 1a8:	0019      	movs	r1, r3
 1aa:	3108      	adds	r1, #8
 1ac:	605a      	str	r2, [r3, #4]
 1ae:	42b1      	cmp	r1, r6
 1b0:	d20c      	bcs.n	1cc <__main+0xbc>
 1b2:	3104      	adds	r1, #4
 1b4:	609a      	str	r2, [r3, #8]
 1b6:	42b1      	cmp	r1, r6
 1b8:	d208      	bcs.n	1cc <__main+0xbc>
 1ba:	3104      	adds	r1, #4
 1bc:	60da      	str	r2, [r3, #12]
 1be:	42b1      	cmp	r1, r6
 1c0:	d204      	bcs.n	1cc <__main+0xbc>
 1c2:	3104      	adds	r1, #4
 1c4:	611a      	str	r2, [r3, #16]
 1c6:	42b1      	cmp	r1, r6
 1c8:	d200      	bcs.n	1cc <__main+0xbc>
 1ca:	615a      	str	r2, [r3, #20]
 1cc:	f7ff ff92 	bl	f4 <SystemInit>
 1d0:	f000 f818 	bl	204 <main>
 1d4:	bf30      	wfi
 1d6:	e7fd      	b.n	1d4 <__main+0xc4>
 1d8:	2200      	movs	r2, #0
 1da:	089b      	lsrs	r3, r3, #2
 1dc:	3301      	adds	r3, #1
 1de:	009b      	lsls	r3, r3, #2
 1e0:	588c      	ldr	r4, [r1, r2]
 1e2:	5084      	str	r4, [r0, r2]
 1e4:	3204      	adds	r2, #4
 1e6:	429a      	cmp	r2, r3
 1e8:	d1fa      	bne.n	1e0 <__main+0xd0>
 1ea:	e7b4      	b.n	156 <__main+0x46>
 1ec:	20000000 	.word	0x20000000
 1f0:	20000000 	.word	0x20000000
 1f4:	0000024c 	.word	0x0000024c
 1f8:	20000000 	.word	0x20000000
 1fc:	20000008 	.word	0x20000008
 200:	20000004 	.word	0x20000004

00000204 <main>:
 204:	2380      	movs	r3, #128	; 0x80
 206:	4a0f      	ldr	r2, [pc, #60]	; (244 <main+0x40>)
 208:	055b      	lsls	r3, r3, #21
 20a:	6a11      	ldr	r1, [r2, #32]
 20c:	430b      	orrs	r3, r1
 20e:	2180      	movs	r1, #128	; 0x80
 210:	6213      	str	r3, [r2, #32]
 212:	2200      	movs	r2, #0
 214:	4b0c      	ldr	r3, [pc, #48]	; (248 <main+0x44>)
 216:	0049      	lsls	r1, r1, #1
 218:	505a      	str	r2, [r3, r1]
 21a:	3140      	adds	r1, #64	; 0x40
 21c:	505a      	str	r2, [r3, r1]
 21e:	3140      	adds	r1, #64	; 0x40
 220:	505a      	str	r2, [r3, r1]
 222:	3140      	adds	r1, #64	; 0x40
 224:	505a      	str	r2, [r3, r1]
 226:	3209      	adds	r2, #9
 228:	39b3      	subs	r1, #179	; 0xb3
 22a:	32ff      	adds	r2, #255	; 0xff
 22c:	39ff      	subs	r1, #255	; 0xff
 22e:	5099      	str	r1, [r3, r2]
 230:	3240      	adds	r2, #64	; 0x40
 232:	3122      	adds	r1, #34	; 0x22
 234:	5099      	str	r1, [r3, r2]
 236:	3240      	adds	r2, #64	; 0x40
 238:	31c8      	adds	r1, #200	; 0xc8
 23a:	5099      	str	r1, [r3, r2]
 23c:	3240      	adds	r2, #64	; 0x40
 23e:	397a      	subs	r1, #122	; 0x7a
 240:	5099      	str	r1, [r3, r2]
 242:	e7fe      	b.n	242 <main+0x3e>
 244:	40002000 	.word	0x40002000
 248:	40020c00 	.word	0x40020c00
