
blink.elf:     file format elf32-littlearm


Disassembly of section .text:

00000000 <__isr_vector>:
   0:	20001000 	.word	0x20001000
   4:	000000c1 	.word	0x000000c1
   8:	000000db 	.word	0x000000db
   c:	000000dd 	.word	0x000000dd
	...
  2c:	000000de 	.word	0x000000de
	...
  38:	000000e1 	.word	0x000000e1
  3c:	0000017d 	.word	0x0000017d
  40:	000000e5 	.word	0x000000e5
  44:	000000e5 	.word	0x000000e5
  48:	000000e5 	.word	0x000000e5
  4c:	000000e5 	.word	0x000000e5
  50:	000000e5 	.word	0x000000e5
  54:	000000e5 	.word	0x000000e5
  58:	000000e5 	.word	0x000000e5
  5c:	000000e5 	.word	0x000000e5
  60:	000000e5 	.word	0x000000e5
  64:	000000e5 	.word	0x000000e5
  68:	000000e5 	.word	0x000000e5
  6c:	000000e5 	.word	0x000000e5
  70:	000000e5 	.word	0x000000e5
  74:	000000e5 	.word	0x000000e5
  78:	000000e5 	.word	0x000000e5
  7c:	000000e5 	.word	0x000000e5
  80:	000000e5 	.word	0x000000e5
  84:	000000e5 	.word	0x000000e5
  88:	000000e5 	.word	0x000000e5
  8c:	000000e5 	.word	0x000000e5
  90:	000000e5 	.word	0x000000e5
  94:	000000e5 	.word	0x000000e5
  98:	000000e5 	.word	0x000000e5
  9c:	000000e5 	.word	0x000000e5
  a0:	000000e5 	.word	0x000000e5
  a4:	000000e5 	.word	0x000000e5
  a8:	000000e5 	.word	0x000000e5
  ac:	000000e5 	.word	0x000000e5
  b0:	000000e5 	.word	0x000000e5
  b4:	000000e5 	.word	0x000000e5
  b8:	000000e5 	.word	0x000000e5
  bc:	000000e5 	.word	0x000000e5

000000c0 <Reset_Handler>:
  c0:	4809      	ldr	r0, [pc, #36]	; (e8 <Default_Handler+0x4>)
  c2:	4a0a      	ldr	r2, [pc, #40]	; (ec <Default_Handler+0x8>)
  c4:	2100      	movs	r1, #0
  c6:	a100      	add	r1, pc, #0	; (adr r1, c8 <Reset_Handler+0x8>)
  c8:	4281      	cmp	r1, r0
  ca:	d900      	bls.n	ce <RamCode>
  cc:	4402      	add	r2, r0

000000ce <RamCode>:
  ce:	4808      	ldr	r0, [pc, #32]	; (f0 <Default_Handler+0xc>)
  d0:	6002      	str	r2, [r0, #0]
  d2:	f000 f83f 	bl	154 <SystemInit>
  d6:	f000 f80d 	bl	f4 <__main>

000000da <NMI_Handler>:
  da:	e7fe      	b.n	da <NMI_Handler>

000000dc <HardFault_Handler>:
  dc:	e7fe      	b.n	dc <HardFault_Handler>

000000de <SVC_Handler>:
  de:	e7fe      	b.n	de <SVC_Handler>

000000e0 <PendSV_Handler>:
  e0:	e7fe      	b.n	e0 <PendSV_Handler>
  e2:	e7fe      	b.n	e2 <PendSV_Handler+0x2>

000000e4 <Default_Handler>:
  e4:	e7fe      	b.n	e4 <Default_Handler>
  e6:	0000      	.short	0x0000
  e8:	20000000 	.word	0x20000000
  ec:	00000000 	.word	0x00000000
  f0:	e000ed08 	.word	0xe000ed08

000000f4 <__main>:
  f4:	b580      	push	{r7, lr}
  f6:	b082      	sub	sp, #8
  f8:	af00      	add	r7, sp, #0
  fa:	4b11      	ldr	r3, [pc, #68]	; (140 <__main+0x4c>)
  fc:	607b      	str	r3, [r7, #4]
  fe:	4b11      	ldr	r3, [pc, #68]	; (144 <__main+0x50>)
 100:	603b      	str	r3, [r7, #0]
 102:	e007      	b.n	114 <__main+0x20>
 104:	687a      	ldr	r2, [r7, #4]
 106:	1d13      	adds	r3, r2, #4
 108:	607b      	str	r3, [r7, #4]
 10a:	683b      	ldr	r3, [r7, #0]
 10c:	1d19      	adds	r1, r3, #4
 10e:	6039      	str	r1, [r7, #0]
 110:	6812      	ldr	r2, [r2, #0]
 112:	601a      	str	r2, [r3, #0]
 114:	683a      	ldr	r2, [r7, #0]
 116:	4b0c      	ldr	r3, [pc, #48]	; (148 <__main+0x54>)
 118:	429a      	cmp	r2, r3
 11a:	d3f3      	bcc.n	104 <__main+0x10>
 11c:	4b0b      	ldr	r3, [pc, #44]	; (14c <__main+0x58>)
 11e:	603b      	str	r3, [r7, #0]
 120:	e004      	b.n	12c <__main+0x38>
 122:	683b      	ldr	r3, [r7, #0]
 124:	1d1a      	adds	r2, r3, #4
 126:	603a      	str	r2, [r7, #0]
 128:	2200      	movs	r2, #0
 12a:	601a      	str	r2, [r3, #0]
 12c:	683a      	ldr	r2, [r7, #0]
 12e:	4b08      	ldr	r3, [pc, #32]	; (150 <__main+0x5c>)
 130:	429a      	cmp	r2, r3
 132:	d3f6      	bcc.n	122 <__main+0x2e>
 134:	f000 f80e 	bl	154 <SystemInit>
 138:	f000 f84a 	bl	1d0 <main>
 13c:	bf30      	wfi
 13e:	e7fd      	b.n	13c <__main+0x48>
 140:	0000026c 	.word	0x0000026c
 144:	20000000 	.word	0x20000000
 148:	20000000 	.word	0x20000000
 14c:	20000000 	.word	0x20000000
 150:	2000000c 	.word	0x2000000c

00000154 <SystemInit>:
 154:	b580      	push	{r7, lr}
 156:	af00      	add	r7, sp, #0
 158:	4b05      	ldr	r3, [pc, #20]	; (170 <SystemInit+0x1c>)
 15a:	881b      	ldrh	r3, [r3, #0]
 15c:	b29a      	uxth	r2, r3
 15e:	4b05      	ldr	r3, [pc, #20]	; (174 <SystemInit+0x20>)
 160:	601a      	str	r2, [r3, #0]
 162:	4b05      	ldr	r3, [pc, #20]	; (178 <SystemInit+0x24>)
 164:	2200      	movs	r2, #0
 166:	601a      	str	r2, [r3, #0]
 168:	46c0      	nop			; (mov r8, r8)
 16a:	46bd      	mov	sp, r7
 16c:	bd80      	pop	{r7, pc}
 16e:	46c0      	nop			; (mov r8, r8)
 170:	00100c08 	.word	0x00100c08
 174:	4000200c 	.word	0x4000200c
 178:	40002000 	.word	0x40002000

0000017c <SysTick_Handler>:
 17c:	b580      	push	{r7, lr}
 17e:	af00      	add	r7, sp, #0
 180:	4b11      	ldr	r3, [pc, #68]	; (1c8 <SysTick_Handler+0x4c>)
 182:	781b      	ldrb	r3, [r3, #0]
 184:	2b00      	cmp	r3, #0
 186:	d00a      	beq.n	19e <SysTick_Handler+0x22>
 188:	4a10      	ldr	r2, [pc, #64]	; (1cc <SysTick_Handler+0x50>)
 18a:	23c4      	movs	r3, #196	; 0xc4
 18c:	005b      	lsls	r3, r3, #1
 18e:	21f8      	movs	r1, #248	; 0xf8
 190:	50d1      	str	r1, [r2, r3]
 192:	4a0e      	ldr	r2, [pc, #56]	; (1cc <SysTick_Handler+0x50>)
 194:	23e4      	movs	r3, #228	; 0xe4
 196:	005b      	lsls	r3, r3, #1
 198:	217e      	movs	r1, #126	; 0x7e
 19a:	50d1      	str	r1, [r2, r3]
 19c:	e009      	b.n	1b2 <SysTick_Handler+0x36>
 19e:	4a0b      	ldr	r2, [pc, #44]	; (1cc <SysTick_Handler+0x50>)
 1a0:	23c4      	movs	r3, #196	; 0xc4
 1a2:	005b      	lsls	r3, r3, #1
 1a4:	2100      	movs	r1, #0
 1a6:	50d1      	str	r1, [r2, r3]
 1a8:	4a08      	ldr	r2, [pc, #32]	; (1cc <SysTick_Handler+0x50>)
 1aa:	23e4      	movs	r3, #228	; 0xe4
 1ac:	005b      	lsls	r3, r3, #1
 1ae:	2100      	movs	r1, #0
 1b0:	50d1      	str	r1, [r2, r3]
 1b2:	4b05      	ldr	r3, [pc, #20]	; (1c8 <SysTick_Handler+0x4c>)
 1b4:	781b      	ldrb	r3, [r3, #0]
 1b6:	425a      	negs	r2, r3
 1b8:	4153      	adcs	r3, r2
 1ba:	b2db      	uxtb	r3, r3
 1bc:	001a      	movs	r2, r3
 1be:	4b02      	ldr	r3, [pc, #8]	; (1c8 <SysTick_Handler+0x4c>)
 1c0:	701a      	strb	r2, [r3, #0]
 1c2:	46c0      	nop			; (mov r8, r8)
 1c4:	46bd      	mov	sp, r7
 1c6:	bd80      	pop	{r7, pc}
 1c8:	20000008 	.word	0x20000008
 1cc:	40020c00 	.word	0x40020c00

000001d0 <main>:
 1d0:	b580      	push	{r7, lr}
 1d2:	af00      	add	r7, sp, #0
 1d4:	4a22      	ldr	r2, [pc, #136]	; (260 <main+0x90>)
 1d6:	6a13      	ldr	r3, [r2, #32]
 1d8:	2180      	movs	r1, #128	; 0x80
 1da:	0549      	lsls	r1, r1, #21
 1dc:	430b      	orrs	r3, r1
 1de:	6213      	str	r3, [r2, #32]
 1e0:	4a1f      	ldr	r2, [pc, #124]	; (260 <main+0x90>)
 1e2:	6a13      	ldr	r3, [r2, #32]
 1e4:	2180      	movs	r1, #128	; 0x80
 1e6:	0449      	lsls	r1, r1, #17
 1e8:	430b      	orrs	r3, r1
 1ea:	6213      	str	r3, [r2, #32]
 1ec:	4a1d      	ldr	r2, [pc, #116]	; (264 <main+0x94>)
 1ee:	2380      	movs	r3, #128	; 0x80
 1f0:	005b      	lsls	r3, r3, #1
 1f2:	2100      	movs	r1, #0
 1f4:	50d1      	str	r1, [r2, r3]
 1f6:	4a1b      	ldr	r2, [pc, #108]	; (264 <main+0x94>)
 1f8:	23a0      	movs	r3, #160	; 0xa0
 1fa:	005b      	lsls	r3, r3, #1
 1fc:	2100      	movs	r1, #0
 1fe:	50d1      	str	r1, [r2, r3]
 200:	4a18      	ldr	r2, [pc, #96]	; (264 <main+0x94>)
 202:	23c0      	movs	r3, #192	; 0xc0
 204:	005b      	lsls	r3, r3, #1
 206:	2100      	movs	r1, #0
 208:	50d1      	str	r1, [r2, r3]
 20a:	4a16      	ldr	r2, [pc, #88]	; (264 <main+0x94>)
 20c:	23e0      	movs	r3, #224	; 0xe0
 20e:	005b      	lsls	r3, r3, #1
 210:	2100      	movs	r1, #0
 212:	50d1      	str	r1, [r2, r3]
 214:	4a13      	ldr	r2, [pc, #76]	; (264 <main+0x94>)
 216:	2384      	movs	r3, #132	; 0x84
 218:	005b      	lsls	r3, r3, #1
 21a:	210e      	movs	r1, #14
 21c:	50d1      	str	r1, [r2, r3]
 21e:	4a11      	ldr	r2, [pc, #68]	; (264 <main+0x94>)
 220:	23a4      	movs	r3, #164	; 0xa4
 222:	005b      	lsls	r3, r3, #1
 224:	2130      	movs	r1, #48	; 0x30
 226:	50d1      	str	r1, [r2, r3]
 228:	490d      	ldr	r1, [pc, #52]	; (260 <main+0x90>)
 22a:	2237      	movs	r2, #55	; 0x37
 22c:	5c8b      	ldrb	r3, [r1, r2]
 22e:	200c      	movs	r0, #12
 230:	4383      	bics	r3, r0
 232:	1c18      	adds	r0, r3, #0
 234:	2308      	movs	r3, #8
 236:	4303      	orrs	r3, r0
 238:	548b      	strb	r3, [r1, r2]
 23a:	4a09      	ldr	r2, [pc, #36]	; (260 <main+0x90>)
 23c:	6b53      	ldr	r3, [r2, #52]	; 0x34
 23e:	2180      	movs	r1, #128	; 0x80
 240:	0489      	lsls	r1, r1, #18
 242:	430b      	orrs	r3, r1
 244:	6353      	str	r3, [r2, #52]	; 0x34
 246:	4b08      	ldr	r3, [pc, #32]	; (268 <main+0x98>)
 248:	2280      	movs	r2, #128	; 0x80
 24a:	0392      	lsls	r2, r2, #14
 24c:	605a      	str	r2, [r3, #4]
 24e:	4b06      	ldr	r3, [pc, #24]	; (268 <main+0x98>)
 250:	2200      	movs	r2, #0
 252:	609a      	str	r2, [r3, #8]
 254:	4b04      	ldr	r3, [pc, #16]	; (268 <main+0x98>)
 256:	2207      	movs	r2, #7
 258:	601a      	str	r2, [r3, #0]
 25a:	46c0      	nop			; (mov r8, r8)
 25c:	e7fd      	b.n	25a <main+0x8a>
 25e:	46c0      	nop			; (mov r8, r8)
 260:	40002000 	.word	0x40002000
 264:	40020c00 	.word	0x40020c00
 268:	e000e010 	.word	0xe000e010
